L251 LINKER/LOCATER V4.66.93.0                                                          11/11/2024  09:33:05  PAGE 1


L251 LINKER/LOCATER V4.66.93.0, INVOKED BY:
D:\KEILMDK\C251\BIN\L251.EXE .\obj\main.obj, .\obj\uart.obj, .\obj\time.obj, .\obj\i2c.obj, .\obj\mcp4725.obj, .\obj\ads
>> 1110.obj, .\obj\cmd.obj, .\obj\MwPro.obj TO .\obj\PileCore PRINT (.\obj\PileCore.map) CASE REMOVEUNUSED CLASSES (EDAT
>> A (0X0-0XFFF), HDATA (0X0-0XFFF))


CPU MODE:     251 SOURCE MODE
INTR FRAME:   2 BYTES SAVED ON INTERRUPT
MEMORY MODEL: XSMALL WITH FLOATING POINT ARITHMETIC


INPUT MODULES INCLUDED:
  .\obj\main.obj (main)
         COMMENT TYPE 0: C251 V5.60.0
  .\obj\uart.obj (uart)
         COMMENT TYPE 0: C251 V5.60.0
  .\obj\time.obj (time)
         COMMENT TYPE 0: C251 V5.60.0
  .\obj\i2c.obj (i2c)
         COMMENT TYPE 0: C251 V5.60.0
  .\obj\mcp4725.obj (mcp4725)
         COMMENT TYPE 0: C251 V5.60.0
  .\obj\ads1110.obj (ads1110)
         COMMENT TYPE 0: C251 V5.60.0
  .\obj\cmd.obj (cmd)
         COMMENT TYPE 0: C251 V5.60.0
  .\obj\MwPro.obj (MwPro)
         COMMENT TYPE 0: C251 V5.60.0
  D:\KEILMDK\C251\LIB\C2SFPXS.LIB (?C?FPDIV)
         COMMENT TYPE 0: A251 V4.69.6.0
  D:\KEILMDK\C251\LIB\C2SFPXS.LIB (?C?FCAST)
         COMMENT TYPE 0: A251 V4.69.6.0
  D:\KEILMDK\C251\LIB\C2SFPXS.LIB (?C?CASTF)
         COMMENT TYPE 0: A251 V4.69.6.0
  D:\KEILMDK\C251\LIB\C2SFPXS.LIB (PRINTF)
         COMMENT TYPE 0: A251 V4.69.6.0
  D:\KEILMDK\C251\LIB\C2SFPXS.LIB (SPRINTF)
         COMMENT TYPE 0: A251 V4.69.6.0
  D:\KEILMDK\C251\LIB\C2SFPXS.LIB (?C?FPGETOPN)
         COMMENT TYPE 0: A251 V4.69.6.0
  D:\KEILMDK\C251\LIB\C2SFPXS.LIB (?C?PRNFMT)
         COMMENT TYPE 0: A251 V4.69.6.0
  D:\KEILMDK\C251\LIB\C2SFPXS.LIB (?C?FPCONVERT)
         COMMENT TYPE 0: A251 V4.69.6.0
  D:\KEILMDK\C251\LIB\C2SFPXS.LIB (?C?FPMUL)
         COMMENT TYPE 0: A251 V4.69.6.0
  D:\KEILMDK\C251\LIB\C2SFPXS.LIB (?C?FTNPWR)
         COMMENT TYPE 0: A251 V4.69.6.0
  D:\KEILMDK\C251\LIB\C2SXS.LIB (?C_START)
         COMMENT TYPE 0: A251 V4.69.6.0
  D:\KEILMDK\C251\LIB\C2SXS.LIB (?C?INITEDATA)
         COMMENT TYPE 0: A251 V4.69.6.0
  D:\KEILMDK\C251\LIB\C2SXS.LIB (?C?INITHDATA)
         COMMENT TYPE 0: A251 V4.69.6.0
  D:\KEILMDK\C251\LIB\C2SXS.LIB (?C?SIDIV)
         COMMENT TYPE 0: A251 V4.69.6.0
  D:\KEILMDK\C251\LIB\C2SXS.LIB (?C?ULDIV)
         COMMENT TYPE 0: A251 V4.69.6.0
  D:\KEILMDK\C251\LIB\C2SXS.LIB (ATOI)
         COMMENT TYPE 0: C251 V5.58.7
  D:\KEILMDK\C251\LIB\C2SXS.LIB (STRLEN)
         COMMENT TYPE 0: C251 V5.58.7
  D:\KEILMDK\C251\LIB\C2SXS.LIB (memcmp)
         COMMENT TYPE 0: C251 V5.58.7
  D:\KEILMDK\C251\LIB\C2SXS.LIB (memcpy)
         COMMENT TYPE 0: C251 V5.58.7
L251 LINKER/LOCATER V4.66.93.0                                                        11/11/2024  09:33:05  PAGE 2


  D:\KEILMDK\C251\LIB\C2SXS.LIB (memset)
         COMMENT TYPE 0: C251 V5.58.7
  D:\KEILMDK\C251\LIB\C2SXS.LIB (?C?INITEDATA_END)
         COMMENT TYPE 0: A251 V4.69.6.0
  D:\KEILMDK\C251\LIB\C2SXS.LIB (?C?INITHDATA_END)
         COMMENT TYPE 0: A251 V4.69.6.0
  D:\KEILMDK\C251\LIB\C2SXS.LIB (ISDIGIT)
         COMMENT TYPE 0: C251 V5.58.7
  D:\KEILMDK\C251\LIB\C2SXS.LIB (ISSPACE)
         COMMENT TYPE 0: C251 V5.58.7


ACTIVE MEMORY CLASSES OF MODULE:  .\obj\PileCore (main)

BASE        START       END         USED      MEMORY CLASS
==========================================================
000000H     000000H     000FFFH     00036CH   EDATA
000000H     000000H     000FFFH               HDATA
000000H     FF0000H     FFFFFFH     00013CH   HCONST
FF0000H     FF0000H     FFFFFFH     0021ADH   CODE
010000H     010000H     01FFFFH     000500H   XDATA
000020H.0   000020H.0   00002FH.7   000000H.4 BIT
FF0000H     FF0000H     FFFFFFH     000004H   CONST
000000H     000000H     00007FH     000008H   DATA


MEMORY MAP OF MODULE:  .\obj\PileCore (main)


START     STOP      LENGTH    ALIGN  RELOC    MEMORY CLASS   SEGMENT NAME
=========================================================================
000000H   000007H   000008H   ---    AT..     DATA           "REG BANK 0"
000008H   00000FH   000008H   BYTE   UNIT     EDATA          ?ED?TIME
000010H   000012H   000003H   BYTE   UNIT     EDATA          ?ED?CMD
000013H.0 00001FH.7 00000DH.0 ---    ---      **GAP**
000020H.0 000020H.3 000000H.4 BIT    UNIT     BIT            ?BI?UART
000020H.4 000020H   000000H.4 ---    ---      **GAP**
000021H   0001C0H   0001A0H   BYTE   UNIT     EDATA          ?ED?UART
0001C1H   00024DH   00008DH   BYTE   UNIT     EDATA          _EDATA_GROUP_
00024EH   000281H   000034H   BYTE   UNIT     EDATA          ?ED?MAIN
000282H   000381H   000100H   BYTE   UNIT     EDATA          ?STACK
000382H   00FFFFH   00FC7EH   ---    ---      **GAP**
010000H   0104BFH   0004C0H   BYTE   INSEG    XDATA          ?XD?UART
0104C0H   0104FFH   000040H   BYTE   INSEG    XDATA          ?XD?MAIN
010500H   FEFFFFH   FDFB00H   ---    ---      **GAP**
FF0000H   FF0002H   000003H   ---    OFFS..   CODE           ?CO?start251?4
FF0003H   FF0003H   000001H   BYTE   INSEG    CODE           ?PR?TASK_1S?MAIN
FF0004H   FF0007H   000004H   BYTE   UNIT     CONST          ?CO?PRINTF
FF0008H   FF000AH   000003H   ---    ---      **GAP**
FF000BH   FF000DH   000003H   ---    OFFS..   CODE           ?PR?IV?1
FF000EH   FF001AH   00000DH   BYTE   INSEG    CODE           ?PR?PUTCHAR?UART
FF001BH   FF001DH   000003H   ---    OFFS..   CODE           ?PR?IV?3
FF001EH   FF0022H   000005H   ---    ---      **GAP**
FF0023H   FF0025H   000003H   ---    OFFS..   CODE           ?PR?IV?4
FF0026H   FF0042H   00001DH   BYTE   INSEG    CODE           ?PR?IDLE?MAIN
FF0043H   FF0045H   000003H   ---    OFFS..   CODE           ?PR?IV?8
FF0046H   FF08AEH   000869H   BYTE   UNIT     CODE           ?C?LIB_CODE
FF08AFH   FF0B8DH   0002DFH   BYTE   INSEG    CODE           ?PR?READBATVOL?CMD
FF0B8EH   FF0E5BH   0002CEH   BYTE   INSEG    CODE           ?PR?READ4_20MA?CMD
FF0E5CH   FF104EH   0001F3H   BYTE   INSEG    CODE           ?PR?MCP4725_OUTVOL?MCP4725
FF104FH   FF11DFH   000191H   BYTE   INSEG    CODE           ?PR?HNDPCCMD?CMD
FF11E0H   FF12F6H   000117H   BYTE   INSEG    CODE           ?PR?WRITESENSORPARAM?CMD
FF12F7H   FF13F8H   000102H   BYTE   INSEG    CODE           ?PR?READSENSORPARAM?CMD
FF13F9H   FF14D1H   0000D9H   BYTE   INSEG    CODE           ?PR?TIMERTASK?TIME
FF14D2H   FF1590H   0000BFH   BYTE   INSEG    CODE           ?PR?VALIDFRAME?CMD
L251 LINKER/LOCATER V4.66.93.0                                                        11/11/2024  09:33:05  PAGE 3


FF1591H   FF1635H   0000A5H   BYTE   INSEG    CODE           ?PR?MAKEFRAME?CMD
FF1636H   FF16C2H   00008DH   BYTE   INSEG    CODE           ?PR?DEVVER?CMD
FF16C3H   FF1741H   00007FH   BYTE   INSEG    CODE           ?PR?ATOI?_?ATOI
FF1742H   FF17BEH   00007DH   BYTE   INSEG    CODE           ?PR?MAIN?MAIN
FF17BFH   FF1837H   000079H   BYTE   INSEG    CODE           ?PR?WRITEALARMPARAM?CMD
FF1838H   FF18AFH   000078H   BYTE   INSEG    CODE           ?PR?OUTCTL?MAIN
FF18B0H   FF1926H   000077H   BYTE   INSEG    CODE           ?PR?READALARMPARAM?CMD
FF1927H   FF1998H   000072H   BYTE   INSEG    CODE           ?PR?HNDINPUT?MAIN
FF1999H   FF19ABH   000013H   BYTE   UNIT     CODE           ?C_C51STARTUP
FF19ACH   FF1A05H   00005AH   BYTE   UNIT     CODE           ?C_C51STARTUP?2
FF1A06H   FF1A08H   000003H   BYTE   UNIT     CODE           ?C_C51STARTUP?3
FF1A09H   FF1A6EH   000066H   BYTE   INSEG    CODE           ?PR?UART2_ISR?UART
FF1A6FH   FF1AD0H   000062H   BYTE   INSEG    CODE           ?PR?UART1_ISR?UART
FF1AD1H   FF1B29H   000059H   BYTE   INSEG    CODE           ?PR?FRAMEREVERT?CMD
FF1B2AH   FF1B7DH   000054H   BYTE   INSEG    CODE           ?PR?REPORTINPUT?MAIN
FF1B7EH   FF1BCFH   000052H   BYTE   INSEG    CODE           ?PR?WAITSENSORACK?CMD
FF1BD0H   FF1C1EH   00004FH   BYTE   INSEG    CODE           ?PR?DWORDTOSMALL?CMD
FF1C1FH   FF1C69H   00004BH   BYTE   INSEG    CODE           ?PR?READDOSERATE?CMD
FF1C6AH   FF1CACH   000043H   BYTE   INSEG    CODE           ?PR?UART1_INIT?UART
FF1CADH   FF1CEBH   00003FH   BYTE   INSEG    CODE           ?PR?WORDTOSMALL?CMD
FF1CECH   FF1D28H   00003DH   BYTE   INSEG    CODE           ?PR?OUTFLASH?MAIN
FF1D29H   FF1D65H   00003DH   BYTE   INSEG    CODE           ?PR?UART2_INIT?UART
FF1D66H   FF1DA0H   00003BH   BYTE   INSEG    CODE           ?PR?LEDCTL?CMD
FF1DA1H   FF1DD4H   000034H   BYTE   INSEG    CODE           ?PR?GETKEY?MAIN
FF1DD5H   FF1E05H   000031H   BYTE   INSEG    CODE           ?PR?CONNECTSENSOR?CMD
FF1E06H   FF1E35H   000030H   BYTE   INSEG    CODE           ?PR?SENDSENSORCMD?CMD
FF1E36H   FF1E64H   00002FH   BYTE   INSEG    CODE           ?PR?MEMCMP?_?MEMCMP
FF1E65H   FF1E90H   00002CH   BYTE   INSEG    CODE           ?PR?GETSTATUS?MAIN
FF1E91H   FF1EBBH   00002BH   BYTE   INSEG    CODE           ?PR?LEDINIT?MAIN
FF1EBCH   FF1EE6H   00002BH   BYTE   INSEG    CODE           ?PR?IOINIT?MAIN
FF1EE7H   FF1F0FH   000029H   BYTE   INSEG    CODE           ?PR?SENDPCCMD?CMD
FF1F10H   FF1F37H   000028H   BYTE   INSEG    CODE           ?PR?SYSINIT?MAIN
FF1F38H   FF1F5FH   000028H   BYTE   INSEG    CODE           ?PR?OUT4_20MA?CMD
FF1F60H   FF1F86H   000027H   BYTE   INSEG    CODE           ?PR?IOCTLTASK?MAIN
FF1F87H   FF1FACH   000026H   BYTE   INSEG    CODE           ?PR?POWEROFF?MAIN
FF1FADH   FF1FD2H   000026H   BYTE   INSEG    CODE           ?PR?HNDPCFRAME?CMD
FF1FD3H   FF1FF7H   000025H   BYTE   INSEG    CODE           ?PR?CLEAR_UART1_BUF?UART
FF1FF8H   FF201CH   000025H   BYTE   INSEG    CODE           ?PR?CLEAR_UART2_BUF?UART
FF201DH   FF2041H   000025H   BYTE   INSEG    CODE           ?PR?CHECKSUM?CMD
FF2042H   FF2066H   000025H   BYTE   INSEG    CODE           ?PR?MEMCPY?_?MEMCPY
FF2067H   FF2089H   000023H   BYTE   INSEG    CODE           ?PR?SOUNDCTL?CMD
FF208AH   FF20ABH   000022H   BYTE   INSEG    CODE           ?PR?RUNLED?MAIN
FF20ACH   FF20CDH   000022H   BYTE   INSEG    CODE           ?PR?CLEARRECVDATA?CMD
FF20CEH   FF20ECH   00001FH   BYTE   INSEG    CODE           ?PR?UART1SEND?UART
FF20EDH   FF210BH   00001FH   BYTE   INSEG    CODE           ?PR?UART2SEND?UART
FF210CH   FF2125H   00001AH   BYTE   INSEG    CODE           ?PR?MEMSET?_?MEMSET
FF2126H   FF213CH   000017H   BYTE   INSEG    CODE           ?PR?DELAY_MS?TIME
FF213DH   FF2150H   000014H   BYTE   INSEG    CODE           ?PR?UART1HND?UART
FF2151H   FF2164H   000014H   BYTE   INSEG    CODE           ?PR?ISSPACE?_?ISSPACE
FF2165H   FF2177H   000013H   BYTE   INSEG    CODE           ?PR?TIMER0ISR?TIME
FF2178H   FF218AH   000013H   BYTE   INSEG    CODE           ?PR?TIMER1ISR?TIME
FF218BH   FF219DH   000013H   BYTE   INSEG    CODE           ?PR?TIMER0_INIT?TIME
FF219EH   FF21ADH   000010H   BYTE   INSEG    CODE           ?PR?ISDIGIT?_?ISDIGIT
FF21AEH   FF21B8H   00000BH   BYTE   INSEG    CODE           ?PR?DELAY_US?TIME
FF21B9H   FF2265H   0000ADH   BYTE   UNIT     HCONST         ?C_INITEDATA
FF2266H   FF22ACH   000047H   BYTE   UNIT     HCONST         ?C_INITHDATA
FF22ADH   FF22D3H   000027H   BYTE   UNIT     HCONST         ?HC?CMD
FF22D4H   FF22F4H   000021H   BYTE   UNIT     HCONST         ?HC?MAIN

* * * * * * * * *   R E M O V E D     S E G M E N T S   * * * * * * * *
   *DEL*:           000030H   BYTE   INSEG    CODE           ?PR?TESTRS485?MAIN
   *DEL*:           00004AH   BYTE   INSEG    CODE           ?PR?PRINTDATA?MAIN
   *DEL*:           000016H   BYTE   INSEG    CODE           ?PR?ERROR?MAIN
   *DEL*:           000003H   BYTE   INSEG    CODE           ?PR?DEBUGMSG?MAIN
   *DEL*:           000039H   BYTE   INSEG    CODE           ?PR?DEBUGINT?MAIN
L251 LINKER/LOCATER V4.66.93.0                                                        11/11/2024  09:33:05  PAGE 4


   *DEL*:           00004DH   BYTE   INSEG    CODE           ?PR?OUTCHANNELLIGHTCTL?MAIN
   *DEL*:           000030H   BYTE   INSEG    CODE           ?PR?MAINTASK?MAIN
   *DEL*:           000014H   BYTE   INSEG    CODE           ?PR?WAITCOMMIDLE?MAIN
   *DEL*:           000094H   BYTE   INSEG    CODE           ?PR?DUMPCMD?MAIN
   *DEL*:           000002H   BYTE   UNIT     EDATA          ?ED?DUMPCMD?MAIN
   *DEL*:           000002H   BYTE   UNIT     EDATA          ?ED?PRINTDATA?MAIN
   *DEL*:           000016H   BYTE   INSEG    CODE           ?PR?UART1_SENDSTRING?UART
   *DEL*:           000011H   BYTE   INSEG    CODE           ?PR?UART1_SENDDATA?UART
   *DEL*:           000012H   BYTE   INSEG    CODE           ?PR?CLEARUART1BUF?UART
   *DEL*:           000016H   BYTE   INSEG    CODE           ?PR?CLEARUART2BUF?UART
   *DEL*:           000037H   BYTE   INSEG    CODE           ?PR?UART2HND?UART
   *DEL*:           000014H   BYTE   INSEG    CODE           ?PR?TIMER1_INIT?TIME
   *DEL*:           000009H   BYTE   INSEG    CODE           ?PR?DELAY?TIME
   *DEL*:           00004FH   BYTE   INSEG    CODE           ?PR?FLOATTOSMALL?CMD
   *DEL*:           000055H   BYTE   INSEG    CODE           ?PR?BYTETOSMALL?CMD
   *DEL*:           000057H   BYTE   INSEG    CODE           ?PR?CHANNELALMLIGHTCLT?CMD
   *DEL*:           00000AH   BYTE   UNIT     EDATA          ?ED?BYTETOSMALL?CMD
   *DEL*:           00000CH   BYTE   UNIT     EDATA          ?ED?FLOATTOSMALL?CMD
   *DEL*:           00001EH   BYTE   INSEG    CODE           ?PR?CHECKSUM1?MWPRO
   *DEL*:           000035H   BYTE   INSEG    CODE           ?PR?BCDTOHEX?MWPRO
   *DEL*:           000028H   BYTE   UNIT     EDATA          ?ED?PRINTF
   *DEL*:           00000EH   BYTE   INSEG    CODE           ?PR?STRLEN?_?STRLEN



OVERLAY MAP OF MODULE:   .\obj\PileCore (main)


FUNCTION/MODULE              EDATA_GROUP
--> CALLED FUNCTION/MODULE   START  STOP
========================================
UART1_ISR/uart               ----- -----
  +--> Clear_Uart1_Buf/uart

Clear_Uart1_Buf/uart         ----- -----
  +--> memset?_/memset

memset?_/memset              ----- -----

*** NEW ROOT ***************

UART2_ISR/uart               ----- -----
  +--> Clear_Uart2_Buf/uart

Clear_Uart2_Buf/uart         ----- -----
  +--> memset?_/memset

*** NEW ROOT ***************

Timer0ISR/time               ----- -----

*** NEW ROOT ***************

Timer1ISR/time               ----- -----

*** NEW ROOT ***************

?C_C51STARTUP                ----- -----

*** NEW ROOT ***************

?C_C51STARTUP?3              ----- -----
  +--> main/main

main/main                    ----- -----
L251 LINKER/LOCATER V4.66.93.0                                                        11/11/2024  09:33:05  PAGE 5


  +--> SysInit/main
  +--> IoInit/main
  +--> LedInit/main
  +--> delay_ms/time
  +--> Timer0_Init/time
  +--> Uart1_Init/uart
  +--> Uart2_Init/uart
  +--> memset?_/memset
  +--> Out4_20ma/cmd
  +--> TimerTask/time
  +--> HndInput/main
  +--> ReportInput/main
  +--> Uart1Hnd/uart

SysInit/main                 ----- -----

IoInit/main                  ----- -----

LedInit/main                 ----- -----

delay_ms/time                ----- -----

Timer0_Init/time             ----- -----

Uart1_Init/uart              ----- -----

Uart2_Init/uart              ----- -----

Out4_20ma/cmd                ----- -----
  +--> MCP4725_OutVol/mcp4725
  +--> SendPcCmd/cmd

MCP4725_OutVol/mcp4725       01C6H 01C9H
  +--> ?C?ULIDIV/?C?ULDIV
  +--> delay_us/time

?C?ULIDIV/?C?ULDIV           ----- -----

delay_us/time                ----- -----

SendPcCmd/cmd                ----- -----
  +--> MakeFrame/cmd
  +--> Uart1Send/uart

MakeFrame/cmd                0217H 0220H
  +--> memcpy?_/memcpy
  +--> CheckSum/cmd
  +--> SPRINTF/SPRINTF

memcpy?_/memcpy              ----- -----

CheckSum/cmd                 ----- -----

SPRINTF/SPRINTF              0226H 024DH
  +--> OUT/SPRINTF

OUT/SPRINTF                  ----- -----
  +--> PUTCH/SPRINTF

PUTCH/SPRINTF                ----- -----

Uart1Send/uart               ----- -----

TimerTask/time               ----- -----
  +--> Task_1s/main
L251 LINKER/LOCATER V4.66.93.0                                                        11/11/2024  09:33:05  PAGE 6


  +--> RunLed/main
  +--> IoCtlTask/main

Task_1s/main                 ----- -----

RunLed/main                  ----- -----

IoCtlTask/main               ----- -----
  +--> OutFlash/main
  +--> OutCtl/main

OutFlash/main                ----- -----
  +--> OutCtl/main

OutCtl/main                  ----- -----

HndInput/main                ----- -----
  +--> GetKey/main
  +--> GetStatus/main
  +--> PowerOff/main

GetKey/main                  ----- -----
  +--> delay_ms/time

GetStatus/main               ----- -----
  +--> delay_ms/time

PowerOff/main                ----- -----

ReportInput/main             01C1H 01C1H
  +--> SendPcCmd/cmd

Uart1Hnd/uart                ----- -----
  +--> HndPcFrame/cmd

HndPcFrame/cmd               ----- -----
  +--> ValidFrame/cmd
  +--> HndPcCmd/cmd
  +--> ClearRecvData/cmd

ValidFrame/cmd               021BH 0225H
  +--> memcpy?_/memcpy
  +--> CheckSum/cmd
  +--> SPRINTF/SPRINTF
  +--> memcmp?_/memcmp

memcmp?_/memcmp              ----- -----

HndPcCmd/cmd                 01C1H 01C5H
  +--> memcpy?_/memcpy
  +--> SoundCtl/cmd
  +--> LedCtl/cmd
  +--> Out4_20ma/cmd
  +--> Read4_20ma/cmd
  +--> DevVer/cmd
  +--> ReadBatVol/cmd
  +--> ConnectSensor/cmd
  +--> ReadDoseRate/cmd
  +--> ReadAlarmParam/cmd
  +--> WriteAlarmParam/cmd
  +--> ReadSensorParam/cmd
  +--> WriteSensorParam/cmd
  +--> FrameRevert/cmd

SoundCtl/cmd                 ----- -----
L251 LINKER/LOCATER V4.66.93.0                                                        11/11/2024  09:33:05  PAGE 7


  +--> SendPcCmd/cmd

LedCtl/cmd                   ----- -----
  +--> memcpy?_/memcpy
  +--> SendPcCmd/cmd

Read4_20ma/cmd               01C6H 01CAH
  +--> delay_us/time
  +--> SendPcCmd/cmd

DevVer/cmd                   01C6H 01CCH
  +--> memcpy?_/memcpy
  +--> SendSensorCmd/cmd
  +--> ClearRecvData/cmd
  +--> SendPcCmd/cmd

SendSensorCmd/cmd            ----- -----
  +--> MakeFrame/cmd
  +--> Uart2Send/uart
  +--> WaitSensorAck/cmd

Uart2Send/uart               ----- -----

WaitSensorAck/cmd            0217H 021AH
  +--> ValidFrame/cmd
  +--> Idle/main

Idle/main                    ----- -----
  +--> TimerTask/time
  +--> HndInput/main

ClearRecvData/cmd            ----- -----
  +--> memset?_/memset

ReadBatVol/cmd               01C6H 01CCH
  +--> delay_us/time
  +--> WordToSmall/cmd
  +--> SendPcCmd/cmd

WordToSmall/cmd              01CDH 01D2H
  +--> memcpy?_/memcpy

ConnectSensor/cmd            ----- -----
  +--> SendSensorCmd/cmd
  +--> SendPcCmd/cmd
  +--> ClearRecvData/cmd

ReadDoseRate/cmd             01C6H 01DEH
  +--> SendSensorCmd/cmd
  +--> memcpy?_/memcpy
  +--> SendPcCmd/cmd
  +--> ClearRecvData/cmd

ReadAlarmParam/cmd           01C6H 01EDH
  +--> SendSensorCmd/cmd
  +--> memset?_/memset
  +--> memcpy?_/memcpy
  +--> SendPcCmd/cmd
  +--> ClearRecvData/cmd

WriteAlarmParam/cmd          01C6H 01EDH
  +--> memset?_/memset
  +--> memcpy?_/memcpy
  +--> SendSensorCmd/cmd
  +--> SendPcCmd/cmd
L251 LINKER/LOCATER V4.66.93.0                                                        11/11/2024  09:33:05  PAGE 8


  +--> ClearRecvData/cmd

ReadSensorParam/cmd          01C6H 0216H
  +--> SendSensorCmd/cmd
  +--> memset?_/memset
  +--> memcpy?_/memcpy
  +--> atoi?_/ATOI
  +--> DwordToSmall/cmd
  +--> SendPcCmd/cmd
  +--> ClearRecvData/cmd

atoi?_/ATOI                  ----- -----
  +--> isspace?_/ISSPACE
  +--> isdigit?_/ISDIGIT

isspace?_/ISSPACE            ----- -----

isdigit?_/ISDIGIT            ----- -----

DwordToSmall/cmd             0217H 0222H
  +--> memcpy?_/memcpy

WriteSensorParam/cmd         01C6H 0216H
  +--> memset?_/memset
  +--> memcpy?_/memcpy
  +--> DwordToSmall/cmd
  +--> SPRINTF/SPRINTF
  +--> SendSensorCmd/cmd
  +--> SendPcCmd/cmd
  +--> ClearRecvData/cmd

FrameRevert/cmd              01C6H 01C6H
  +--> SendSensorCmd/cmd
  +--> SendPcCmd/cmd
  +--> ClearRecvData/cmd

*** NEW ROOT ***************

?C_C51STARTUP?2              ----- -----



PUBLIC SYMBOLS OF MODULE:  .\obj\PileCore (main)


      VALUE       CLASS    TYPE      PUBLIC SYMBOL NAME
      =================================================
      00FF0104H   CODE     NEAR LAB  ?C?CASTF
      000000FFH   NUMBER   ---       ?C?CODESEG
      00FF00D1H   CODE     NEAR LAB  ?C?FCASTC
      00FF00CCH   CODE     NEAR LAB  ?C?FCASTI
      00FF00C7H   CODE     NEAR LAB  ?C?FCASTL
      00FF0628H   CODE     ---       ?C?FPCONVERT
      00FF0046H   CODE     ---       ?C?FPDIV
      00FF018DH   CODE     ---       ?C?FPGETOPN2
      00FF0723H   CODE     ---       ?C?FPMUL
      00FF01CAH   CODE     ---       ?C?FPNANRESULT
      00FF01D2H   CODE     ---       ?C?FPOVERFLOW
      00FF01A6H   CODE     ---       ?C?FPRESULT
      00FF01BCH   CODE     ---       ?C?FPRESULT2
      00FF06E0H   CODE     ---       ?C?FPROUND
      00FF01CFH   CODE     ---       ?C?FPUNDERFLOW
      00FF07F3H   CODE     ---       ?C?FTNPWR
      00FF19ACH   CODE     ---       ?C?INITEDATA
      00FF2264H   HCONST   WORD      ?C?INITEDATA_END
L251 LINKER/LOCATER V4.66.93.0                                                        11/11/2024  09:33:05  PAGE 9


      00FF19D5H   CODE     ---       ?C?INITHDATA
      00FF22ABH   HCONST   WORD      ?C?INITHDATA_END
      00FF020BH   CODE     ---       ?C?PRNFMT
      00FF082AH   CODE     ---       ?C?SIDIV
      00FF0000H   CODE     ---       ?C?STARTUP
      00FF085EH   CODE     NEAR LAB  ?C?ULDIV
      00FF085CH   CODE     NEAR LAB  ?C?ULIDIV
      00000001H   NUMBER   ---       ?C?XDATASEG
      00FF0000H   CODE     ---       ?C_STARTUP
      00000211H   EDATA    BYTE      ?MakeFrame?BYTE
*DEL*:00000028H   EDATA    ---       ?printf?BYTE
      0000024EH   EDATA    ---       ?sprintf?BYTE
*SFR* 000000BCH   DATA     BYTE      ADC_CONTR
*SFR* 000000DEH   DATA     BYTE      ADCCFG
      00FF16C3H   CODE     ---       atoi?_
*SFR* 000000EFH   DATA     BYTE      AUXINTIF
*SFR* 0000008EH   DATA     BYTE      AUXR
*SFR* 00000097H   DATA     BYTE      AUXR2
      00000020H.0 BIT      BIT       B_TX1_Busy
      00000020H.1 BIT      BIT       B_TX2_Busy
      00000020H.2 BIT      BIT       B_TX3_Busy
      00000020H.3 BIT      BIT       B_TX4_Busy
*DEL*:00000000H   CODE     ---       BcdToHex
*DEL*:00000000H   CODE     ---       ByteToSmall
*SFR* 000000F1H   DATA     BYTE      CANICR
*DEL*:00000000H   CODE     ---       ChannelAlmLightClt
      00FF201DH   CODE     ---       CheckSum
*DEL*:00000000H   CODE     ---       CheckSum1
      00FF1FD3H   CODE     ---       Clear_Uart1_Buf
      00FF1FF8H   CODE     ---       Clear_Uart2_Buf
      00FF20ACH   CODE     ---       ClearRecvData
*DEL*:00000000H   CODE     ---       ClearUart1Buf
*DEL*:00000000H   CODE     ---       ClearUart2Buf
*SFR* 000000C1H.4 DATA     BIT       CLR_WDT
*SFR* 000000E6H   DATA     BYTE      CMPCR1
*SFR* 000000E7H   DATA     BYTE      CMPCR2
      00FF1DD5H   CODE     ---       ConnectSensor
*DEL*:00000000H   CODE     ---       DebugInt
*DEL*:00000000H   CODE     ---       DebugMsg
*DEL*:00000000H   CODE     ---       Delay
      00FF2126H   CODE     ---       delay_ms
      00FF21AEH   CODE     ---       delay_us
      00FF1636H   CODE     ---       DevVer
*DEL*:00000000H   CODE     ---       DumpCmd
      00FF1BD0H   CODE     ---       DwordToSmall
*SFR* 000000A8H.7 DATA     BIT       EA
*SFR* 000000BAH.7 DATA     BIT       EAXFR
*DEL*:00000000H   CODE     ---       Error
*SFR* 000000A8H.4 DATA     BIT       ES
*SFR* 000000AFH.0 DATA     BIT       ES2
*SFR* 000000A8H.1 DATA     BIT       ET0
*SFR* 000000A8H.3 DATA     BIT       ET1
*SFR* 000000AFH.2 DATA     BIT       ET2
*DEL*:00000000H   CODE     ---       FloatToSmall
      00FF1AD1H   CODE     ---       FrameRevert
      00000011H   EDATA    WORD      g_CommIdleTime
      00000010H   EDATA    BYTE      g_CrcFlag
      00000254H   EDATA    BYTE      g_Key_Confrom
      0000026AH   EDATA    BYTE      g_Key_Input
      00000269H   EDATA    BYTE      g_Key_Power
      0000025BH   EDATA    ---       g_OutChannelLight
      0000025FH   EDATA    ---       g_OutChannelStatus
      00000263H   EDATA    ---       g_Output
      0000024EH   EDATA    ---       g_OutStatus
      00010190H   XDATA    ---       g_UartData
L251 LINKER/LOCATER V4.66.93.0                                                        11/11/2024  09:33:05  PAGE 10


      00FF1DA1H   CODE     ---       GetKey
      00FF1E65H   CODE     ---       GetStatus
      0000026BH   EDATA    DWORD     gIdleTime
      00000255H   EDATA    WORD      gRunTime
      00000257H   EDATA    DWORD     gTask1sTime
      00FF1927H   CODE     ---       HndInput
      00FF104FH   CODE     ---       HndPcCmd
      00FF1FADH   CODE     ---       HndPcFrame
*SFR* 000000C7H   DATA     BYTE      IAP_CONTR
      00FF0026H   CODE     ---       Idle
*SFR* 000000A8H   DATA     BYTE      IE
*SFR* 000000AFH   DATA     BYTE      IE2
      0000026FH   EDATA    BYTE      Input_Status
*SFR* 0000008FH   DATA     BYTE      INTCLKO
      00FF1F60H   CODE     ---       IoCtlTask
      00FF1EBCH   CODE     ---       IoInit
*SFR* 000000B8H   DATA     BYTE      IP
*SFR* 000000B5H   DATA     BYTE      IP2
*SFR* 000000B6H   DATA     BYTE      IP2H
*SFR* 000000DFH   DATA     BYTE      IP3
*SFR* 000000EEH   DATA     BYTE      IP3H
*SFR* 000000B7H   DATA     BYTE      IPH
*SFR* 0000009DH   DATA     BYTE      IRCBAND
      00FF219EH   CODE     ---       isdigit?_
      00FF2151H   CODE     ---       isspace?_
      00FF1D66H   CODE     ---       LedCtl
      00FF1E91H   CODE     ---       LedInit
*SFR* 000000F9H   DATA     BYTE      LINICR
      00FF1742H   CODE     ---       main
*DEL*:00000000H   CODE     ---       MainTask
      00FF1591H   CODE     ---       MakeFrame
      00FF0E5CH   CODE     ---       MCP4725_OutVol
      00FF1E36H   CODE     ---       memcmp?_
      00FF2042H   CODE     ---       memcpy?_
      00FF210CH   CODE     ---       memset?_
      00FF1F38H   CODE     ---       Out4_20ma
*DEL*:00000000H   CODE     ---       OutChannelLightCtl
      00FF1838H   CODE     ---       OutCtl
      00FF1CECH   CODE     ---       OutFlash
*SFR* 00000080H   DATA     BYTE      P0
*SFR* 00000094H   DATA     BYTE      P0M0
*SFR* 00000093H   DATA     BYTE      P0M1
*SFR* 00000090H   DATA     BYTE      P1
*SFR* 00000092H   DATA     BYTE      P1M0
*SFR* 00000091H   DATA     BYTE      P1M1
*SFR* 000000A0H   DATA     BYTE      P2
*SFR* 00000096H   DATA     BYTE      P2M0
*SFR* 00000095H   DATA     BYTE      P2M1
*SFR* 000000B0H   DATA     BYTE      P3
*SFR* 000000B2H   DATA     BYTE      P3M0
*SFR* 000000B1H   DATA     BYTE      P3M1
*SFR* 000000C0H   DATA     BYTE      P4
*SFR* 000000B4H   DATA     BYTE      P4M0
*SFR* 000000B3H   DATA     BYTE      P4M1
*SFR* 000000C8H   DATA     BYTE      P5
*SFR* 000000CAH   DATA     BYTE      P5M0
*SFR* 000000C9H   DATA     BYTE      P5M1
*SFR* 000000E8H   DATA     BYTE      P6
*SFR* 000000F8H   DATA     BYTE      P7
*SFR* 000000A2H   DATA     BYTE      P_SW1
*SFR* 000000BAH   DATA     BYTE      P_SW2
*SFR* 000000BBH   DATA     BYTE      P_SW3
*SFR* 00000087H   DATA     BYTE      PCON
      00FF1F87H   CODE     ---       PowerOff
*DEL*:00000000H   CODE     ---       PrintData
L251 LINKER/LOCATER V4.66.93.0                                                        11/11/2024  09:33:05  PAGE 11


      00FF0141H   CODE     NEAR LAB  printf
*SFR* 000000B8H.4 DATA     BIT       PS
*SFR* 000000B5H.0 DATA     BIT       PS2
*SFR* 000000B6H.0 DATA     BIT       PS2H
*SFR* 000000B7H.4 DATA     BIT       PSH
*SFR* 000000D0H   DATA     BYTE      PSW
*SFR* 000000B8H.1 DATA     BIT       PT0
*SFR* 000000B7H.1 DATA     BIT       PT0H
      00FF000EH   CODE     ---       putchar
      00FF0B8EH   CODE     ---       Read4_20ma
      00FF18B0H   CODE     ---       ReadAlarmParam
      00FF08AFH   CODE     ---       ReadBatVol
      00FF1C1FH   CODE     ---       ReadDoseRate
      00FF12F7H   CODE     ---       ReadSensorParam
*SFR* 00000098H.4 DATA     BIT       REN
      00FF1B2AH   CODE     ---       ReportInput
*SFR* 00000098H.0 DATA     BIT       RI
*SFR* 000000FFH   DATA     BYTE      RSTCFG
      00FF208AH   CODE     ---       RunLed
      00000021H   EDATA    ---       RX1_Buffer
      000001B7H   EDATA    BYTE      RX1_Cnt
      000001B1H   EDATA    WORD      Rx1_Timer
      00010000H   XDATA    ---       RX2_Buffer
      000001BAH   EDATA    BYTE      RX2_Cnt
      000001B3H   EDATA    WORD      Rx2_Timer
      000100C8H   XDATA    ---       RX3_Buffer
      000001BBH   EDATA    BYTE      RX3_Cnt
      000001B5H   EDATA    WORD      Rx3_Timer
      000000E9H   EDATA    ---       RX4_Buffer
      000001BDH   EDATA    BYTE      RX4_Cnt
      000001B8H   EDATA    WORD      Rx4_Timer
*SFR* 0000009BH   DATA     BYTE      S2BUF
*SFR* 0000009AH   DATA     BYTE      S2CON
*SFR* 0000009AH.4 DATA     BIT       S2REN
*SFR* 0000009AH.0 DATA     BIT       S2RI
*SFR* 0000009AH.1 DATA     BIT       S2TI
*SFR* 000000ACH   DATA     BYTE      S3CON
*SFR* 000000FDH   DATA     BYTE      S4CON
*SFR* 00000099H   DATA     BYTE      SBUF
*SFR* 00000098H   DATA     BYTE      SCON
      00FF1EE7H   CODE     ---       SendPcCmd
      00FF1E06H   CODE     ---       SendSensorCmd
      00FF2067H   CODE     ---       SoundCtl
*SFR* 000000CEH   DATA     BYTE      SPCTL
      00FF016DH   CODE     NEAR LAB  sprintf
*SFR* 000000CDH   DATA     BYTE      SPSTAT
*DEL*:00000000H   CODE     ---       strlen?_
      000104C0H   XDATA    ---       StrTmp
      00FF1F10H   CODE     ---       SysInit
*SFR* 000000D6H   DATA     BYTE      T2H
*SFR* 000000D7H   DATA     BYTE      T2L
*SFR* 0000008EH.4 DATA     BIT       T2R
*SFR* 0000008EH.2 DATA     BIT       T2x12
*SFR* 000000DDH   DATA     BYTE      T4T3M
      00FF0003H   CODE     ---       Task_1s
*SFR* 00000088H   DATA     BYTE      TCON
*DEL*:00000000H   CODE     ---       TestRs485
*SFR* 0000008CH   DATA     BYTE      TH0
*SFR* 0000008DH   DATA     BYTE      TH1
*SFR* 00000098H.1 DATA     BIT       TI
      00000008H   EDATA    WORD      Time1s
      00FF218BH   CODE     ---       Timer0_Init
      0000000AH   EDATA    WORD      Timer0Cnt
      00FF2165H   CODE     ---       Timer0ISR
*DEL*:00000000H   CODE     ---       Timer1_Init
L251 LINKER/LOCATER V4.66.93.0                                                        11/11/2024  09:33:05  PAGE 12


      0000000CH   EDATA    WORD      Timer1Cnt
      00FF2178H   CODE     ---       Timer1ISR
      00FF13F9H   CODE     ---       TimerTask
*SFR* 0000008AH   DATA     BYTE      TL0
*SFR* 0000008BH   DATA     BYTE      TL1
*SFR* 00000089H   DATA     BYTE      TMOD
*SFR* 00000088H.4 DATA     BIT       TR0
*SFR* 00000088H.6 DATA     BIT       TR1
      000001BCH   EDATA    BYTE      TX1_Cnt
      000001BEH   EDATA    BYTE      TX2_Cnt
      000001BFH   EDATA    BYTE      TX3_Cnt
      000001C0H   EDATA    BYTE      TX4_Cnt
      00FF1C6AH   CODE     ---       Uart1_Init
      00FF1A6FH   CODE     ---       UART1_ISR
*DEL*:00000000H   CODE     ---       UART1_SendData
*DEL*:00000000H   CODE     ---       UART1_SendString
      00FF213DH   CODE     ---       Uart1Hnd
      00FF20CEH   CODE     ---       Uart1Send
      00FF1D29H   CODE     ---       Uart2_Init
      00FF1A09H   CODE     ---       UART2_ISR
*DEL*:00000000H   CODE     ---       Uart2Hnd
      00FF20EDH   CODE     ---       Uart2Send
*SFR* 000000F4H   DATA     BYTE      USBCON
      00FF14D2H   CODE     ---       ValidFrame
      00FF22EDH   HCONST   ---       VERSION
*DEL*:00000000H   CODE     ---       WaitCommIdle
      00FF1B7EH   CODE     ---       WaitSensorAck
*SFR* 000000C1H   DATA     BYTE      WDT_CONTR
      00FF1CADH   CODE     ---       WordToSmall
      00FF17BFH   CODE     ---       WriteAlarmParam
      00FF11E0H   CODE     ---       WriteSensorParam
*SFR* 000000E9H   DATA     BYTE      WTST



SYMBOL TABLE OF MODULE:  .\obj\PileCore (main)

      VALUE       REP       CLASS    TYPE      SYMBOL NAME
      ====================================================
      ---         MODULE    ---      ---       main
      00FF22EDH   PUBLIC    HCONST   ---       VERSION
      00FF0026H   PUBLIC    CODE     ---       Idle
      00FF1B2AH   PUBLIC    CODE     ---       ReportInput
      00FF0003H   PUBLIC    CODE     ---       Task_1s
      00FF1742H   PUBLIC    CODE     ---       main
      00FF1E65H   PUBLIC    CODE     ---       GetStatus
      00FF1CECH   PUBLIC    CODE     ---       OutFlash
      00FF1E91H   PUBLIC    CODE     ---       LedInit
      00FF1F87H   PUBLIC    CODE     ---       PowerOff
      00FF1927H   PUBLIC    CODE     ---       HndInput
      00FF1DA1H   PUBLIC    CODE     ---       GetKey
      00FF208AH   PUBLIC    CODE     ---       RunLed
      00FF1EBCH   PUBLIC    CODE     ---       IoInit
      00FF1F10H   PUBLIC    CODE     ---       SysInit
      00FF1838H   PUBLIC    CODE     ---       OutCtl
      00FF1F60H   PUBLIC    CODE     ---       IoCtlTask
      0000024EH   PUBLIC    EDATA    ---       g_OutStatus
      00000254H   PUBLIC    EDATA    BYTE      g_Key_Confrom
      00000255H   PUBLIC    EDATA    WORD      gRunTime
      00000257H   PUBLIC    EDATA    DWORD     gTask1sTime
      0000025BH   PUBLIC    EDATA    ---       g_OutChannelLight
      0000025FH   PUBLIC    EDATA    ---       g_OutChannelStatus
      00000263H   PUBLIC    EDATA    ---       g_Output
      00000269H   PUBLIC    EDATA    BYTE      g_Key_Power
      0000026AH   PUBLIC    EDATA    BYTE      g_Key_Input
L251 LINKER/LOCATER V4.66.93.0                                                        11/11/2024  09:33:05  PAGE 13


      0000026BH   PUBLIC    EDATA    DWORD     gIdleTime
      0000026FH   PUBLIC    EDATA    BYTE      Input_Status
      000104C0H   PUBLIC    XDATA    ---       StrTmp
      00000094H   SFRSYM    DATA     BYTE      P0M0
      000000D0H   SFRSYM    DATA     BYTE      PSW
      000000BAH.7 SFRSYM    DATA     BIT       EAXFR
      0000009DH   SFRSYM    DATA     BYTE      IRCBAND
      00000097H   SFRSYM    DATA     BYTE      AUXR2
      000000EFH   SFRSYM    DATA     BYTE      AUXINTIF
      000000FDH   SFRSYM    DATA     BYTE      S4CON
      000000ACH   SFRSYM    DATA     BYTE      S3CON
      0000009AH   SFRSYM    DATA     BYTE      S2CON
      000000B7H   SFRSYM    DATA     BYTE      IPH
      000000CDH   SFRSYM    DATA     BYTE      SPSTAT
      000000DDH   SFRSYM    DATA     BYTE      T4T3M
      000000C1H   SFRSYM    DATA     BYTE      WDT_CONTR
      000000E9H   SFRSYM    DATA     BYTE      WTST
      000000DFH   SFRSYM    DATA     BYTE      IP3
      000000F4H   SFRSYM    DATA     BYTE      USBCON
      000000B5H   SFRSYM    DATA     BYTE      IP2
      000000FFH   SFRSYM    DATA     BYTE      RSTCFG
      000000C7H   SFRSYM    DATA     BYTE      IAP_CONTR
      000000F9H   SFRSYM    DATA     BYTE      LINICR
      0000008EH   SFRSYM    DATA     BYTE      AUXR
      000000AFH   SFRSYM    DATA     BYTE      IE2
      00000088H   SFRSYM    DATA     BYTE      TCON
      00000089H   SFRSYM    DATA     BYTE      TMOD
      00000098H   SFRSYM    DATA     BYTE      SCON
      000000F1H   SFRSYM    DATA     BYTE      CANICR
      00000087H   SFRSYM    DATA     BYTE      PCON
      000000BCH   SFRSYM    DATA     BYTE      ADC_CONTR
      000000E7H   SFRSYM    DATA     BYTE      CMPCR2
      000000E6H   SFRSYM    DATA     BYTE      CMPCR1
      000000DEH   SFRSYM    DATA     BYTE      ADCCFG
      000000B8H   SFRSYM    DATA     BYTE      IP
      0000008FH   SFRSYM    DATA     BYTE      INTCLKO
      000000EEH   SFRSYM    DATA     BYTE      IP3H
      000000B6H   SFRSYM    DATA     BYTE      IP2H
      000000A8H   SFRSYM    DATA     BYTE      IE
      000000BBH   SFRSYM    DATA     BYTE      P_SW3
      000000BAH   SFRSYM    DATA     BYTE      P_SW2
      000000A2H   SFRSYM    DATA     BYTE      P_SW1
      000000CEH   SFRSYM    DATA     BYTE      SPCTL
      000000F8H   SFRSYM    DATA     BYTE      P7
      000000A8H.7 SFRSYM    DATA     BIT       EA
      000000E8H   SFRSYM    DATA     BYTE      P6
      000000C8H   SFRSYM    DATA     BYTE      P5
      000000C0H   SFRSYM    DATA     BYTE      P4
      000000C9H   SFRSYM    DATA     BYTE      P5M1
      000000B0H   SFRSYM    DATA     BYTE      P3
      000000B3H   SFRSYM    DATA     BYTE      P4M1
      000000CAH   SFRSYM    DATA     BYTE      P5M0
      000000A0H   SFRSYM    DATA     BYTE      P2
      000000B1H   SFRSYM    DATA     BYTE      P3M1
      000000B4H   SFRSYM    DATA     BYTE      P4M0
      00000090H   SFRSYM    DATA     BYTE      P1
      00000095H   SFRSYM    DATA     BYTE      P2M1
      000000B2H   SFRSYM    DATA     BYTE      P3M0
      00000080H   SFRSYM    DATA     BYTE      P0
      00000091H   SFRSYM    DATA     BYTE      P1M1
      00000096H   SFRSYM    DATA     BYTE      P2M0
      00000092H   SFRSYM    DATA     BYTE      P1M0
      00000093H   SFRSYM    DATA     BYTE      P0M1
      REG=1       REGSYM    ---      ---       msg
      WR14        REGSYM    ---      INT       msg
L251 LINKER/LOCATER V4.66.93.0                                                        11/11/2024  09:33:05  PAGE 14


      REG=3       REGSYM    ---      ---       dat

      00FF208AH   BLOCK     CODE     ---       LVL=0
      WR6         REGSYM    ---      WORD      dt
      00000270H   SYMBOL    EDATA    WORD      tm
      00FF208AH   LINE      CODE     ---       #78
      00FF208AH   LINE      CODE     ---       #79
      00FF208AH   LINE      CODE     ---       #81
      00FF208AH   LINE      CODE     ---       #82
      00FF2092H   LINE      CODE     ---       #84
      00FF2098H   LINE      CODE     ---       #86
      00FF209EH   LINE      CODE     ---       #87
      00FF20A1H   LINE      CODE     ---       #88
      00FF20A2H   LINE      CODE     ---       #89
      00FF20A8H   LINE      CODE     ---       #91
      00FF20ABH   LINE      CODE     ---       #92
      ---         BLOCKEND  ---      ---       LVL=0

      00FF0026H   BLOCK     CODE     ---       LVL=0
      DR12        REGSYM    ---      DWORD     time
      00FF0026H   LINE      CODE     ---       #95
      00FF002AH   LINE      CODE     ---       #97
      00FF0030H   LINE      CODE     ---       #99
      00FF0032H   LINE      CODE     ---       #101
      00FF0035H   LINE      CODE     ---       #102
      00FF0038H   LINE      CODE     ---       #103
      00FF0040H   LINE      CODE     ---       #104
      ---         BLOCKEND  ---      ---       LVL=0

      00FF1F10H   BLOCK     CODE     ---       LVL=0
      00FF1F10H   LINE      CODE     ---       #106
      00FF1F10H   LINE      CODE     ---       #108
      00FF1F1DH   LINE      CODE     ---       #109
      00FF1F2BH   LINE      CODE     ---       #110
      00FF1F37H   LINE      CODE     ---       #111
      ---         BLOCKEND  ---      ---       LVL=0

      00FF1EBCH   BLOCK     CODE     ---       LVL=0
      00FF1EBCH   LINE      CODE     ---       #113
      00FF1EBCH   LINE      CODE     ---       #115
      00FF1EBFH   LINE      CODE     ---       #116
      00FF1EC2H   LINE      CODE     ---       #118
      00FF1EC8H   LINE      CODE     ---       #119
      00FF1ECEH   LINE      CODE     ---       #120
      00FF1ED4H   LINE      CODE     ---       #121
      00FF1EDAH   LINE      CODE     ---       #122
      00FF1EE0H   LINE      CODE     ---       #123
      00FF1EE6H   LINE      CODE     ---       #124
      ---         BLOCKEND  ---      ---       LVL=0

      00FF1838H   BLOCK     CODE     ---       LVL=0
      R11         REGSYM    ---      BYTE      id
      R10         REGSYM    ---      BYTE      st
      00FF1838H   LINE      CODE     ---       #152
      00FF183AH   LINE      CODE     ---       #154
      00FF1844H   LINE      CODE     ---       #156
      00FF1844H   LINE      CODE     ---       #157
      00FF1844H   LINE      CODE     ---       #159
      00FF1848H   LINE      CODE     ---       #161
      00FF185CH   LINE      CODE     ---       #163
      00FF185CH   LINE      CODE     ---       #165
      00FF1867H   LINE      CODE     ---       #166
      00FF1868H   LINE      CODE     ---       #169
      00FF1868H   LINE      CODE     ---       #171
      00FF1873H   LINE      CODE     ---       #172
L251 LINKER/LOCATER V4.66.93.0                                                        11/11/2024  09:33:05  PAGE 15


      00FF1874H   LINE      CODE     ---       #175
      00FF1880H   LINE      CODE     ---       #176
      00FF188CH   LINE      CODE     ---       #178
      00FF188CH   LINE      CODE     ---       #180
      00FF1898H   LINE      CODE     ---       #181
      00FF18A3H   LINE      CODE     ---       #183
      00FF18A4H   LINE      CODE     ---       #186
      00FF18AFH   LINE      CODE     ---       #187
      00FF18AFH   LINE      CODE     ---       #190
      ---         BLOCKEND  ---      ---       LVL=0
      R11         REGSYM    ---      BYTE      id
      R10         REGSYM    ---      BYTE      st

      00FF1CECH   BLOCK     CODE     ---       LVL=0
      R1          REGSYM    ---      BYTE      id
      00FF1CEEH   BLOCK     CODE     NEAR LAB  LVL=1
      00000272H   SYMBOL    EDATA    ---       OutTimer
      ---         BLOCKEND  ---      ---       LVL=1
      00FF1CECH   LINE      CODE     ---       #229
      00FF1CEEH   LINE      CODE     ---       #230
      00FF1CEEH   LINE      CODE     ---       #233
      00FF1D07H   LINE      CODE     ---       #235
      00FF1D11H   LINE      CODE     ---       #236
      00FF1D1AH   LINE      CODE     ---       #238
      00FF1D1EH   LINE      CODE     ---       #239
      00FF1D20H   LINE      CODE     ---       #242
      00FF1D28H   LINE      CODE     ---       #243
      00FF1D28H   LINE      CODE     ---       #244
      ---         BLOCKEND  ---      ---       LVL=0

      00FF1F60H   BLOCK     CODE     ---       LVL=0
      00FF1F62H   BLOCK     CODE     NEAR LAB  LVL=1
      R15         REGSYM    ---      BYTE      i
      ---         BLOCKEND  ---      ---       LVL=1
      00FF1F60H   LINE      CODE     ---       #262
      00FF1F62H   LINE      CODE     ---       #263
      00FF1F62H   LINE      CODE     ---       #265
      00FF1F64H   LINE      CODE     ---       #267
      00FF1F6FH   LINE      CODE     ---       #269
      00FF1F74H   LINE      CODE     ---       #270
      00FF1F76H   LINE      CODE     ---       #273
      00FF1F7DH   LINE      CODE     ---       #274
      00FF1F7DH   LINE      CODE     ---       #275
      00FF1F84H   LINE      CODE     ---       #289
      ---         BLOCKEND  ---      ---       LVL=0

      00FF1F87H   BLOCK     CODE     ---       LVL=0
      00FF1F87H   LINE      CODE     ---       #291
      00FF1F87H   LINE      CODE     ---       #293
      00FF1F8AH   LINE      CODE     ---       #294
      00FF1F8DH   LINE      CODE     ---       #295
      00FF1F90H   LINE      CODE     ---       #296
      00FF1F93H   LINE      CODE     ---       #297
      00FF1F96H   LINE      CODE     ---       #298
      00FF1F99H   LINE      CODE     ---       #299
      00FF1F9CH   LINE      CODE     ---       #300
      00FF1F9FH   LINE      CODE     ---       #301
      00FF1FA2H   LINE      CODE     ---       #302
      00FF1FA5H   LINE      CODE     ---       #303
      00FF1FA8H   LINE      CODE     ---       #304
      00FF1FABH   LINE      CODE     ---       #306
      00FF1FABH   LINE      CODE     ---       #309
      ---         BLOCKEND  ---      ---       LVL=0

      00FF1E91H   BLOCK     CODE     ---       LVL=0
L251 LINKER/LOCATER V4.66.93.0                                                        11/11/2024  09:33:05  PAGE 16


      00FF1E91H   LINE      CODE     ---       #321
      00FF1E91H   LINE      CODE     ---       #326
      00FF1E94H   LINE      CODE     ---       #327
      00FF1E97H   LINE      CODE     ---       #328
      00FF1E9AH   LINE      CODE     ---       #330
      00FF1E9DH   LINE      CODE     ---       #331
      00FF1EA0H   LINE      CODE     ---       #335
      00FF1EA3H   LINE      CODE     ---       #337
      00FF1EA6H   LINE      CODE     ---       #338
      00FF1EA9H   LINE      CODE     ---       #339
      00FF1EACH   LINE      CODE     ---       #340
      00FF1EAFH   LINE      CODE     ---       #342
      00FF1EB2H   LINE      CODE     ---       #343
      00FF1EB5H   LINE      CODE     ---       #344
      00FF1EB8H   LINE      CODE     ---       #345
      00FF1EBBH   LINE      CODE     ---       #347
      ---         BLOCKEND  ---      ---       LVL=0

      00FF1927H   BLOCK     CODE     ---       LVL=0
      0000027EH   SYMBOL    EDATA    BYTE      PwrHis
      0000027FH   SYMBOL    EDATA    BYTE      StHis
      R11         REGSYM    ---      BYTE      s
      R11         REGSYM    ---      BYTE      key
      00FF1927H   LINE      CODE     ---       #351
      00FF1927H   LINE      CODE     ---       #352
      00FF1927H   LINE      CODE     ---       #359
      00FF192AH   LINE      CODE     ---       #360
      00FF192DH   LINE      CODE     ---       #365
      00FF1933H   LINE      CODE     ---       #366
      00FF1933H   LINE      CODE     ---       #369
      00FF193AH   LINE      CODE     ---       #370
      00FF1943H   LINE      CODE     ---       #372
      00FF194BH   LINE      CODE     ---       #373
      00FF194EH   LINE      CODE     ---       #375
      00FF1953H   LINE      CODE     ---       #377
      00FF1959H   LINE      CODE     ---       #380
      00FF195FH   LINE      CODE     ---       #381
      00FF1961H   LINE      CODE     ---       #384
      00FF1964H   LINE      CODE     ---       #385
      00FF196AH   LINE      CODE     ---       #386
      00FF1970H   LINE      CODE     ---       #387
      00FF1970H   LINE      CODE     ---       #388
      00FF1970H   LINE      CODE     ---       #404
      00FF1974H   LINE      CODE     ---       #405
      00FF1974H   LINE      CODE     ---       #409
      00FF197BH   LINE      CODE     ---       #411
      00FF198FH   LINE      CODE     ---       #413
      00FF1995H   LINE      CODE     ---       #415
      00FF1998H   LINE      CODE     ---       #416
      00FF1998H   LINE      CODE     ---       #418
      ---         BLOCKEND  ---      ---       LVL=0

      00FF1DA1H   BLOCK     CODE     ---       LVL=0
      00000280H   SYMBOL    EDATA    BYTE      key_pressed
      00FF1DA1H   LINE      CODE     ---       #420
      00FF1DA1H   LINE      CODE     ---       #421
      00FF1DA1H   LINE      CODE     ---       #425
      00FF1DABH   LINE      CODE     ---       #427
      00FF1DB2H   LINE      CODE     ---       #429
      00FF1DB4H   LINE      CODE     ---       #430
      00FF1DB4H   LINE      CODE     ---       #432
      00FF1DBBH   LINE      CODE     ---       #433
      00FF1DC5H   LINE      CODE     ---       #435
      00FF1DCBH   LINE      CODE     ---       #436
      00FF1DCEH   LINE      CODE     ---       #437
L251 LINKER/LOCATER V4.66.93.0                                                        11/11/2024  09:33:05  PAGE 17


      00FF1DCEH   LINE      CODE     ---       #441
      00FF1DD3H   LINE      CODE     ---       #442
      00FF1DD3H   LINE      CODE     ---       #444
      00FF1DD4H   LINE      CODE     ---       #445
      ---         BLOCKEND  ---      ---       LVL=0

      00FF1E65H   BLOCK     CODE     ---       LVL=0
      00FF1E67H   BLOCK     CODE     NEAR LAB  LVL=1
      00000281H   SYMBOL    EDATA    BYTE      his
      R15         REGSYM    ---      BYTE      st
      ---         BLOCKEND  ---      ---       LVL=1
      00FF1E65H   LINE      CODE     ---       #448
      00FF1E67H   LINE      CODE     ---       #449
      00FF1E67H   LINE      CODE     ---       #452
      00FF1E6DH   LINE      CODE     ---       #456
      00FF1E75H   LINE      CODE     ---       #458
      00FF1E7CH   LINE      CODE     ---       #462
      00FF1E84H   LINE      CODE     ---       #464
      00FF1E88H   LINE      CODE     ---       #465
      00FF1E8CH   LINE      CODE     ---       #466
      00FF1E8CH   LINE      CODE     ---       #469
      00FF1E8EH   LINE      CODE     ---       #470
      ---         BLOCKEND  ---      ---       LVL=0
      REG=3       REGSYM    ---      ---       pata

      00FF0003H   BLOCK     CODE     ---       LVL=0
      00FF0003H   LINE      CODE     ---       #483
      00FF0003H   LINE      CODE     ---       #488
      ---         BLOCKEND  ---      ---       LVL=0

      00FF1B2AH   BLOCK     CODE     ---       LVL=0
      000001C1H   SYMBOL    EDATA    BYTE      PwOff
      00FF1B2AH   LINE      CODE     ---       #490
      00FF1B2AH   LINE      CODE     ---       #491
      00FF1B2AH   LINE      CODE     ---       #492
      00FF1B30H   LINE      CODE     ---       #494
      00FF1B3AH   LINE      CODE     ---       #496
      00FF1B40H   LINE      CODE     ---       #498
      00FF1B45H   LINE      CODE     ---       #499
      00FF1B4CH   LINE      CODE     ---       #500
      00FF1B4EH   LINE      CODE     ---       #501
      00FF1B4EH   LINE      CODE     ---       #503
      00FF1B54H   LINE      CODE     ---       #505
      00FF1B59H   LINE      CODE     ---       #506
      00FF1B63H   LINE      CODE     ---       #507
      00FF1B65H   LINE      CODE     ---       #508
      00FF1B65H   LINE      CODE     ---       #510
      00FF1B6BH   LINE      CODE     ---       #512
      00FF1B70H   LINE      CODE     ---       #513
      00FF1B7DH   LINE      CODE     ---       #514
      00FF1B7DH   LINE      CODE     ---       #516
      ---         BLOCKEND  ---      ---       LVL=0

      00FF1742H   BLOCK     CODE     ---       LVL=0
      00FF1742H   LINE      CODE     ---       #519
      00FF1742H   LINE      CODE     ---       #521
      00FF1745H   LINE      CODE     ---       #522
      00FF1748H   LINE      CODE     ---       #523
      00FF174BH   LINE      CODE     ---       #524
      00FF174EH   LINE      CODE     ---       #525
      00FF1751H   LINE      CODE     ---       #527
      00FF1758H   LINE      CODE     ---       #529
      00FF175BH   LINE      CODE     ---       #530
      00FF1762H   LINE      CODE     ---       #532
      00FF1765H   LINE      CODE     ---       #533
L251 LINKER/LOCATER V4.66.93.0                                                        11/11/2024  09:33:05  PAGE 18


      00FF176CH   LINE      CODE     ---       #535
      00FF176FH   LINE      CODE     ---       #536
      00FF1776H   LINE      CODE     ---       #539
      00FF177DH   LINE      CODE     ---       #541
      00FF178DH   LINE      CODE     ---       #542
      00FF1794H   LINE      CODE     ---       #544
      00FF1797H   LINE      CODE     ---       #545
      00FF1799H   LINE      CODE     ---       #547
      00FF179CH   LINE      CODE     ---       #548
      00FF17A3H   LINE      CODE     ---       #549
      00FF17AAH   LINE      CODE     ---       #550
      00FF17B1H   LINE      CODE     ---       #552
      00FF17B1H   LINE      CODE     ---       #554
      00FF17B4H   LINE      CODE     ---       #555
      00FF17B7H   LINE      CODE     ---       #556
      00FF17BAH   LINE      CODE     ---       #557
      00FF17BDH   LINE      CODE     ---       #558
      ---         BLOCKEND  ---      ---       LVL=0

      ---         MODULE    ---      ---       uart
      00FF1FD3H   PUBLIC    CODE     ---       Clear_Uart1_Buf
      00FF1FF8H   PUBLIC    CODE     ---       Clear_Uart2_Buf
      00FF1A6FH   PUBLIC    CODE     ---       UART1_ISR
      00FF1A09H   PUBLIC    CODE     ---       UART2_ISR
      00FF1C6AH   PUBLIC    CODE     ---       Uart1_Init
      00FF1D29H   PUBLIC    CODE     ---       Uart2_Init
      00FF20CEH   PUBLIC    CODE     ---       Uart1Send
      00FF20EDH   PUBLIC    CODE     ---       Uart2Send
      00FF213DH   PUBLIC    CODE     ---       Uart1Hnd
      00FF000EH   PUBLIC    CODE     ---       putchar
      00000020H.0 PUBLIC    BIT      BIT       B_TX1_Busy
      00000020H.1 PUBLIC    BIT      BIT       B_TX2_Busy
      00000020H.2 PUBLIC    BIT      BIT       B_TX3_Busy
      00000020H.3 PUBLIC    BIT      BIT       B_TX4_Busy
      00000021H   PUBLIC    EDATA    ---       RX1_Buffer
      000000E9H   PUBLIC    EDATA    ---       RX4_Buffer
      000001B1H   PUBLIC    EDATA    WORD      Rx1_Timer
      000001B3H   PUBLIC    EDATA    WORD      Rx2_Timer
      000001B5H   PUBLIC    EDATA    WORD      Rx3_Timer
      000001B7H   PUBLIC    EDATA    BYTE      RX1_Cnt
      000001B8H   PUBLIC    EDATA    WORD      Rx4_Timer
      000001BAH   PUBLIC    EDATA    BYTE      RX2_Cnt
      000001BBH   PUBLIC    EDATA    BYTE      RX3_Cnt
      000001BCH   PUBLIC    EDATA    BYTE      TX1_Cnt
      000001BDH   PUBLIC    EDATA    BYTE      RX4_Cnt
      000001BEH   PUBLIC    EDATA    BYTE      TX2_Cnt
      000001BFH   PUBLIC    EDATA    BYTE      TX3_Cnt
      000001C0H   PUBLIC    EDATA    BYTE      TX4_Cnt
      00010000H   PUBLIC    XDATA    ---       RX2_Buffer
      000100C8H   PUBLIC    XDATA    ---       RX3_Buffer
      00010190H   PUBLIC    XDATA    ---       g_UartData
      000000D0H   SFRSYM    DATA     BYTE      PSW
      0000009DH   SFRSYM    DATA     BYTE      IRCBAND
      00000097H   SFRSYM    DATA     BYTE      AUXR2
      0000009AH.4 SFRSYM    DATA     BIT       S2REN
      000000B7H.4 SFRSYM    DATA     BIT       PSH
      000000EFH   SFRSYM    DATA     BYTE      AUXINTIF
      000000FDH   SFRSYM    DATA     BYTE      S4CON
      000000ACH   SFRSYM    DATA     BYTE      S3CON
      0000009AH   SFRSYM    DATA     BYTE      S2CON
      00000098H.4 SFRSYM    DATA     BIT       REN
      0000009BH   SFRSYM    DATA     BYTE      S2BUF
      0000008EH.2 SFRSYM    DATA     BIT       T2x12
      000000B7H   SFRSYM    DATA     BYTE      IPH
      000000CDH   SFRSYM    DATA     BYTE      SPSTAT
L251 LINKER/LOCATER V4.66.93.0                                                        11/11/2024  09:33:05  PAGE 19


      000000DDH   SFRSYM    DATA     BYTE      T4T3M
      0000008EH.4 SFRSYM    DATA     BIT       T2R
      000000C1H   SFRSYM    DATA     BYTE      WDT_CONTR
      00000088H.6 SFRSYM    DATA     BIT       TR1
      000000B5H.0 SFRSYM    DATA     BIT       PS2
      000000D7H   SFRSYM    DATA     BYTE      T2L
      0000008BH   SFRSYM    DATA     BYTE      TL1
      000000D6H   SFRSYM    DATA     BYTE      T2H
      0000008DH   SFRSYM    DATA     BYTE      TH1
      000000DFH   SFRSYM    DATA     BYTE      IP3
      000000F4H   SFRSYM    DATA     BYTE      USBCON
      000000AFH.2 SFRSYM    DATA     BIT       ET2
      000000B5H   SFRSYM    DATA     BYTE      IP2
      000000FFH   SFRSYM    DATA     BYTE      RSTCFG
      000000A8H.3 SFRSYM    DATA     BIT       ET1
      000000AFH.0 SFRSYM    DATA     BIT       ES2
      000000C7H   SFRSYM    DATA     BYTE      IAP_CONTR
      000000F9H   SFRSYM    DATA     BYTE      LINICR
      0000008EH   SFRSYM    DATA     BYTE      AUXR
      000000AFH   SFRSYM    DATA     BYTE      IE2
      00000088H   SFRSYM    DATA     BYTE      TCON
      00000089H   SFRSYM    DATA     BYTE      TMOD
      00000098H   SFRSYM    DATA     BYTE      SCON
      000000F1H   SFRSYM    DATA     BYTE      CANICR
      00000087H   SFRSYM    DATA     BYTE      PCON
      00000099H   SFRSYM    DATA     BYTE      SBUF
      000000BCH   SFRSYM    DATA     BYTE      ADC_CONTR
      000000E7H   SFRSYM    DATA     BYTE      CMPCR2
      000000E6H   SFRSYM    DATA     BYTE      CMPCR1
      0000009AH.1 SFRSYM    DATA     BIT       S2TI
      000000B8H.4 SFRSYM    DATA     BIT       PS
      0000009AH.0 SFRSYM    DATA     BIT       S2RI
      000000B6H.0 SFRSYM    DATA     BIT       PS2H
      00000098H.1 SFRSYM    DATA     BIT       TI
      00000098H.0 SFRSYM    DATA     BIT       RI
      000000DEH   SFRSYM    DATA     BYTE      ADCCFG
      000000B8H   SFRSYM    DATA     BYTE      IP
      000000A8H.4 SFRSYM    DATA     BIT       ES
      0000008FH   SFRSYM    DATA     BYTE      INTCLKO
      000000EEH   SFRSYM    DATA     BYTE      IP3H
      000000B6H   SFRSYM    DATA     BYTE      IP2H
      000000A8H   SFRSYM    DATA     BYTE      IE
      000000BBH   SFRSYM    DATA     BYTE      P_SW3
      000000BAH   SFRSYM    DATA     BYTE      P_SW2
      000000A2H   SFRSYM    DATA     BYTE      P_SW1
      000000CEH   SFRSYM    DATA     BYTE      SPCTL
      000000F8H   SFRSYM    DATA     BYTE      P7
      000000E8H   SFRSYM    DATA     BYTE      P6
      000000C8H   SFRSYM    DATA     BYTE      P5
      000000C0H   SFRSYM    DATA     BYTE      P4
      000000B0H   SFRSYM    DATA     BYTE      P3
      000000A0H   SFRSYM    DATA     BYTE      P2
      00000090H   SFRSYM    DATA     BYTE      P1
      00000080H   SFRSYM    DATA     BYTE      P0

      00FF1C6AH   BLOCK     CODE     ---       LVL=0
      00FF1C6AH   LINE      CODE     ---       #36
      00FF1C6AH   LINE      CODE     ---       #39
      00FF1C6CH   LINE      CODE     ---       #40
      00FF1C6FH   LINE      CODE     ---       #41
      00FF1C72H   LINE      CODE     ---       #42
      00FF1C75H   LINE      CODE     ---       #43
      00FF1C78H   LINE      CODE     ---       #44
      00FF1C7BH   LINE      CODE     ---       #45
      00FF1C7EH   LINE      CODE     ---       #46
L251 LINKER/LOCATER V4.66.93.0                                                        11/11/2024  09:33:05  PAGE 20


      00FF1C80H   LINE      CODE     ---       #47
      00FF1C83H   LINE      CODE     ---       #48
      00FF1C85H   LINE      CODE     ---       #54
      00FF1C8DH   LINE      CODE     ---       #56
      00FF1C8FH   LINE      CODE     ---       #57
      00FF1C92H   LINE      CODE     ---       #59
      00FF1C94H   LINE      CODE     ---       #60
      00FF1C96H   LINE      CODE     ---       #64
      00FF1C99H   LINE      CODE     ---       #65
      00FF1C9CH   LINE      CODE     ---       #67
      00FF1C9EH   LINE      CODE     ---       #68
      00FF1CA6H   LINE      CODE     ---       #69
      00FF1CACH   LINE      CODE     ---       #72
      ---         BLOCKEND  ---      ---       LVL=0

      00FF1D29H   BLOCK     CODE     ---       LVL=0
      00FF1D29H   LINE      CODE     ---       #74
      00FF1D29H   LINE      CODE     ---       #76
      00FF1D2CH   LINE      CODE     ---       #77
      00FF1D2FH   LINE      CODE     ---       #78
      00FF1D32H   LINE      CODE     ---       #79
      00FF1D35H   LINE      CODE     ---       #80
      00FF1D38H   LINE      CODE     ---       #81
      00FF1D3BH   LINE      CODE     ---       #82
      00FF1D3EH   LINE      CODE     ---       #84
      00FF1D46H   LINE      CODE     ---       #86
      00FF1D49H   LINE      CODE     ---       #87
      00FF1D4CH   LINE      CODE     ---       #89
      00FF1D4FH   LINE      CODE     ---       #90
      00FF1D52H   LINE      CODE     ---       #91
      00FF1D55H   LINE      CODE     ---       #93
      00FF1D57H   LINE      CODE     ---       #94
      00FF1D5FH   LINE      CODE     ---       #95
      00FF1D65H   LINE      CODE     ---       #97
      ---         BLOCKEND  ---      ---       LVL=0

      00FF000EH   BLOCK     CODE     ---       LVL=0
      R10         REGSYM    ---      CHAR      c
      00FF000EH   LINE      CODE     ---       #100
      00FF0010H   LINE      CODE     ---       #102
      00FF0013H   LINE      CODE     ---       #103
      00FF0016H   LINE      CODE     ---       #104
      00FF0018H   LINE      CODE     ---       #105
      00FF001AH   LINE      CODE     ---       #106
      ---         BLOCKEND  ---      ---       LVL=0

      00FF1A6FH   BLOCK     CODE     ---       LVL=0
      00FF1A6FH   LINE      CODE     ---       #109
      00FF1A85H   LINE      CODE     ---       #111
      00FF1A88H   LINE      CODE     ---       #113
      00FF1A8AH   LINE      CODE     ---       #114
      00FF1AA4H   LINE      CODE     ---       #117
      00FF1AB0H   LINE      CODE     ---       #119
      00FF1AB3H   LINE      CODE     ---       #120
      00FF1AB3H   LINE      CODE     ---       #123
      00FF1AB6H   LINE      CODE     ---       #125
      00FF1AB8H   LINE      CODE     ---       #126
      00FF1ABAH   LINE      CODE     ---       #127
      ---         BLOCKEND  ---      ---       LVL=0

      00FF1A09H   BLOCK     CODE     ---       LVL=0
      00FF1A09H   LINE      CODE     ---       #132
      00FF1A1FH   LINE      CODE     ---       #134
      00FF1A23H   LINE      CODE     ---       #136
      00FF1A26H   LINE      CODE     ---       #137
L251 LINKER/LOCATER V4.66.93.0                                                        11/11/2024  09:33:05  PAGE 21


      00FF1A40H   LINE      CODE     ---       #140
      00FF1A4CH   LINE      CODE     ---       #142
      00FF1A4FH   LINE      CODE     ---       #143
      00FF1A4FH   LINE      CODE     ---       #146
      00FF1A53H   LINE      CODE     ---       #148
      00FF1A56H   LINE      CODE     ---       #149
      00FF1A58H   LINE      CODE     ---       #150
      ---         BLOCKEND  ---      ---       LVL=0
      R11         REGSYM    ---      CHAR      dat
      REG=3       REGSYM    ---      ---       s

      00FF20CEH   BLOCK     CODE     ---       LVL=0
      REG=7       REGSYM    ---      ---       buf
      R10         REGSYM    ---      BYTE      len
      00FF20D2H   BLOCK     CODE     NEAR LAB  LVL=1
      R7          REGSYM    ---      BYTE      i
      ---         BLOCKEND  ---      ---       LVL=1
      00FF20CEH   LINE      CODE     ---       #174
      00FF20D2H   LINE      CODE     ---       #175
      00FF20D2H   LINE      CODE     ---       #177
      00FF20D6H   LINE      CODE     ---       #179
      00FF20E1H   LINE      CODE     ---       #180
      00FF20E3H   LINE      CODE     ---       #181
      00FF20E6H   LINE      CODE     ---       #182
      00FF20ECH   LINE      CODE     ---       #183
      ---         BLOCKEND  ---      ---       LVL=0

      00FF20EDH   BLOCK     CODE     ---       LVL=0
      REG=7       REGSYM    ---      ---       buf
      R10         REGSYM    ---      BYTE      len
      00FF20F1H   BLOCK     CODE     NEAR LAB  LVL=1
      R7          REGSYM    ---      BYTE      i
      ---         BLOCKEND  ---      ---       LVL=1
      00FF20EDH   LINE      CODE     ---       #185
      00FF20F1H   LINE      CODE     ---       #186
      00FF20F1H   LINE      CODE     ---       #188
      00FF20F5H   LINE      CODE     ---       #190
      00FF2100H   LINE      CODE     ---       #191
      00FF2102H   LINE      CODE     ---       #192
      00FF2105H   LINE      CODE     ---       #193
      00FF210BH   LINE      CODE     ---       #194
      ---         BLOCKEND  ---      ---       LVL=0

      00FF1FD3H   BLOCK     CODE     ---       LVL=0
      00FF1FD3H   LINE      CODE     ---       #197
      00FF1FD3H   LINE      CODE     ---       #199
      00FF1FE3H   LINE      CODE     ---       #200
      00FF1FEBH   LINE      CODE     ---       #201
      00FF1FF7H   LINE      CODE     ---       #202
      ---         BLOCKEND  ---      ---       LVL=0

      00FF1FF8H   BLOCK     CODE     ---       LVL=0
      00FF1FF8H   LINE      CODE     ---       #218
      00FF1FF8H   LINE      CODE     ---       #220
      00FF2008H   LINE      CODE     ---       #221
      00FF2010H   LINE      CODE     ---       #222
      00FF201CH   LINE      CODE     ---       #223
      ---         BLOCKEND  ---      ---       LVL=0

      00FF213DH   BLOCK     CODE     ---       LVL=0
      00FF213DH   LINE      CODE     ---       #226
      00FF213DH   LINE      CODE     ---       #228
      00FF214DH   LINE      CODE     ---       #230
      00FF2150H   LINE      CODE     ---       #232
      ---         BLOCKEND  ---      ---       LVL=0
L251 LINKER/LOCATER V4.66.93.0                                                        11/11/2024  09:33:05  PAGE 22


      R11         REGSYM    ---      BYTE      ret

      ---         MODULE    ---      ---       time
      00FF13F9H   PUBLIC    CODE     ---       TimerTask
      00FF2165H   PUBLIC    CODE     ---       Timer0ISR
      00FF2178H   PUBLIC    CODE     ---       Timer1ISR
      00FF218BH   PUBLIC    CODE     ---       Timer0_Init
      00FF2126H   PUBLIC    CODE     ---       delay_ms
      00FF21AEH   PUBLIC    CODE     ---       delay_us
      00000008H   PUBLIC    EDATA    WORD      Time1s
      0000000AH   PUBLIC    EDATA    WORD      Timer0Cnt
      0000000CH   PUBLIC    EDATA    WORD      Timer1Cnt
      000000D0H   SFRSYM    DATA     BYTE      PSW
      0000009DH   SFRSYM    DATA     BYTE      IRCBAND
      00000097H   SFRSYM    DATA     BYTE      AUXR2
      000000EFH   SFRSYM    DATA     BYTE      AUXINTIF
      000000FDH   SFRSYM    DATA     BYTE      S4CON
      000000ACH   SFRSYM    DATA     BYTE      S3CON
      0000009AH   SFRSYM    DATA     BYTE      S2CON
      000000B7H   SFRSYM    DATA     BYTE      IPH
      000000CDH   SFRSYM    DATA     BYTE      SPSTAT
      000000DDH   SFRSYM    DATA     BYTE      T4T3M
      000000C1H   SFRSYM    DATA     BYTE      WDT_CONTR
      00000088H.6 SFRSYM    DATA     BIT       TR1
      00000088H.4 SFRSYM    DATA     BIT       TR0
      000000B8H.1 SFRSYM    DATA     BIT       PT0
      0000008BH   SFRSYM    DATA     BYTE      TL1
      0000008AH   SFRSYM    DATA     BYTE      TL0
      0000008DH   SFRSYM    DATA     BYTE      TH1
      0000008CH   SFRSYM    DATA     BYTE      TH0
      000000DFH   SFRSYM    DATA     BYTE      IP3
      000000F4H   SFRSYM    DATA     BYTE      USBCON
      000000B5H   SFRSYM    DATA     BYTE      IP2
      000000FFH   SFRSYM    DATA     BYTE      RSTCFG
      000000A8H.1 SFRSYM    DATA     BIT       ET0
      000000C7H   SFRSYM    DATA     BYTE      IAP_CONTR
      000000F9H   SFRSYM    DATA     BYTE      LINICR
      0000008EH   SFRSYM    DATA     BYTE      AUXR
      000000AFH   SFRSYM    DATA     BYTE      IE2
      00000088H   SFRSYM    DATA     BYTE      TCON
      00000089H   SFRSYM    DATA     BYTE      TMOD
      00000098H   SFRSYM    DATA     BYTE      SCON
      000000C1H.4 SFRSYM    DATA     BIT       CLR_WDT
      000000F1H   SFRSYM    DATA     BYTE      CANICR
      00000087H   SFRSYM    DATA     BYTE      PCON
      000000BCH   SFRSYM    DATA     BYTE      ADC_CONTR
      000000E7H   SFRSYM    DATA     BYTE      CMPCR2
      000000E6H   SFRSYM    DATA     BYTE      CMPCR1
      000000B7H.1 SFRSYM    DATA     BIT       PT0H
      000000DEH   SFRSYM    DATA     BYTE      ADCCFG
      000000B8H   SFRSYM    DATA     BYTE      IP
      0000008FH   SFRSYM    DATA     BYTE      INTCLKO
      000000EEH   SFRSYM    DATA     BYTE      IP3H
      000000B6H   SFRSYM    DATA     BYTE      IP2H
      000000A8H   SFRSYM    DATA     BYTE      IE
      000000BBH   SFRSYM    DATA     BYTE      P_SW3
      000000BAH   SFRSYM    DATA     BYTE      P_SW2
      000000A2H   SFRSYM    DATA     BYTE      P_SW1
      000000CEH   SFRSYM    DATA     BYTE      SPCTL
      000000F8H   SFRSYM    DATA     BYTE      P7
      000000E8H   SFRSYM    DATA     BYTE      P6
      000000C8H   SFRSYM    DATA     BYTE      P5
      000000C0H   SFRSYM    DATA     BYTE      P4
      000000B0H   SFRSYM    DATA     BYTE      P3
      000000A0H   SFRSYM    DATA     BYTE      P2
L251 LINKER/LOCATER V4.66.93.0                                                        11/11/2024  09:33:05  PAGE 23


      00000090H   SFRSYM    DATA     BYTE      P1
      00000080H   SFRSYM    DATA     BYTE      P0

      00FF218BH   BLOCK     CODE     ---       LVL=0
      00FF218BH   LINE      CODE     ---       #9
      00FF218BH   LINE      CODE     ---       #11
      00FF218EH   LINE      CODE     ---       #12
      00FF2191H   LINE      CODE     ---       #13
      00FF2194H   LINE      CODE     ---       #14
      00FF2196H   LINE      CODE     ---       #15
      00FF2198H   LINE      CODE     ---       #18
      00FF219AH   LINE      CODE     ---       #19
      00FF219DH   LINE      CODE     ---       #22
      ---         BLOCKEND  ---      ---       LVL=0

      00FF2165H   BLOCK     CODE     ---       LVL=0
      00FF2165H   LINE      CODE     ---       #25
      00FF2169H   LINE      CODE     ---       #27
      00FF2173H   LINE      CODE     ---       #28
      ---         BLOCKEND  ---      ---       LVL=0

      00FF2178H   BLOCK     CODE     ---       LVL=0
      00FF2178H   LINE      CODE     ---       #45
      00FF217CH   LINE      CODE     ---       #47
      00FF2186H   LINE      CODE     ---       #48
      ---         BLOCKEND  ---      ---       LVL=0

      00FF21AEH   BLOCK     CODE     ---       LVL=0
      R7          REGSYM    ---      BYTE      us
      00FF21AEH   LINE      CODE     ---       #50
      00FF21B0H   LINE      CODE     ---       #52
      00FF21B0H   LINE      CODE     ---       #55
      00FF21B8H   LINE      CODE     ---       #56
      ---         BLOCKEND  ---      ---       LVL=0

      00FF2126H   BLOCK     CODE     ---       LVL=0
      WR4         REGSYM    ---      WORD      ms
      00FF2128H   BLOCK     CODE     NEAR LAB  LVL=1
      WR6         REGSYM    ---      WORD      i
      ---         BLOCKEND  ---      ---       LVL=1
      00FF2126H   LINE      CODE     ---       #58
      00FF2128H   LINE      CODE     ---       #59
      00FF2128H   LINE      CODE     ---       #61
      00FF2128H   LINE      CODE     ---       #62
      00FF212CH   LINE      CODE     ---       #63
      00FF2134H   LINE      CODE     ---       #64
      00FF213CH   LINE      CODE     ---       #65
      ---         BLOCKEND  ---      ---       LVL=0
      WR6         REGSYM    ---      WORD      ms

      00FF13F9H   BLOCK     CODE     ---       LVL=0
      00FF13FBH   BLOCK     CODE     NEAR LAB  LVL=1
      WR14        REGSYM    ---      WORD      delta
      0000000EH   SYMBOL    EDATA    WORD      Time1s
      R5          REGSYM    ---      BYTE      i
      ---         BLOCKEND  ---      ---       LVL=1
      00FF13F9H   LINE      CODE     ---       #76
      00FF13FBH   LINE      CODE     ---       #77
      00FF13FBH   LINE      CODE     ---       #78
      00FF13FDH   LINE      CODE     ---       #81
      00FF1408H   LINE      CODE     ---       #83
      00FF140EH   LINE      CODE     ---       #84
      00FF1412H   LINE      CODE     ---       #86
      00FF141BH   LINE      CODE     ---       #88
      00FF1425H   LINE      CODE     ---       #89
L251 LINKER/LOCATER V4.66.93.0                                                        11/11/2024  09:33:05  PAGE 24


      00FF1425H   LINE      CODE     ---       #90
      00FF142EH   LINE      CODE     ---       #92
      00FF1438H   LINE      CODE     ---       #93
      00FF1438H   LINE      CODE     ---       #95
      00FF1446H   LINE      CODE     ---       #97
      00FF1450H   LINE      CODE     ---       #99
      00FF145AH   LINE      CODE     ---       #100
      00FF145AH   LINE      CODE     ---       #102
      00FF145CH   LINE      CODE     ---       #104
      00FF1479H   LINE      CODE     ---       #106
      00FF149DH   LINE      CODE     ---       #107
      00FF14A3H   LINE      CODE     ---       #110
      00FF14ADH   LINE      CODE     ---       #111
      00FF14B3H   LINE      CODE     ---       #113
      00FF14B6H   LINE      CODE     ---       #114
      00FF14BAH   LINE      CODE     ---       #115
      00FF14BDH   LINE      CODE     ---       #116
      00FF14BDH   LINE      CODE     ---       #117
      00FF14C7H   LINE      CODE     ---       #119
      00FF14CCH   LINE      CODE     ---       #120
      00FF14CFH   LINE      CODE     ---       #121
      ---         BLOCKEND  ---      ---       LVL=0

      ---         MODULE    ---      ---       i2c
      000000D0H   SFRSYM    DATA     BYTE      PSW
      0000009DH   SFRSYM    DATA     BYTE      IRCBAND
      00000097H   SFRSYM    DATA     BYTE      AUXR2
      000000EFH   SFRSYM    DATA     BYTE      AUXINTIF
      000000FDH   SFRSYM    DATA     BYTE      S4CON
      000000ACH   SFRSYM    DATA     BYTE      S3CON
      0000009AH   SFRSYM    DATA     BYTE      S2CON
      000000B7H   SFRSYM    DATA     BYTE      IPH
      000000CDH   SFRSYM    DATA     BYTE      SPSTAT
      000000DDH   SFRSYM    DATA     BYTE      T4T3M
      000000C1H   SFRSYM    DATA     BYTE      WDT_CONTR
      000000DFH   SFRSYM    DATA     BYTE      IP3
      000000F4H   SFRSYM    DATA     BYTE      USBCON
      000000B5H   SFRSYM    DATA     BYTE      IP2
      000000FFH   SFRSYM    DATA     BYTE      RSTCFG
      000000C7H   SFRSYM    DATA     BYTE      IAP_CONTR
      000000F9H   SFRSYM    DATA     BYTE      LINICR
      0000008EH   SFRSYM    DATA     BYTE      AUXR
      000000AFH   SFRSYM    DATA     BYTE      IE2
      00000088H   SFRSYM    DATA     BYTE      TCON
      00000089H   SFRSYM    DATA     BYTE      TMOD
      00000098H   SFRSYM    DATA     BYTE      SCON
      000000F1H   SFRSYM    DATA     BYTE      CANICR
      00000087H   SFRSYM    DATA     BYTE      PCON
      000000BCH   SFRSYM    DATA     BYTE      ADC_CONTR
      000000E7H   SFRSYM    DATA     BYTE      CMPCR2
      000000E6H   SFRSYM    DATA     BYTE      CMPCR1
      000000DEH   SFRSYM    DATA     BYTE      ADCCFG
      000000B8H   SFRSYM    DATA     BYTE      IP
      0000008FH   SFRSYM    DATA     BYTE      INTCLKO
      000000EEH   SFRSYM    DATA     BYTE      IP3H
      000000B6H   SFRSYM    DATA     BYTE      IP2H
      000000A8H   SFRSYM    DATA     BYTE      IE
      000000BBH   SFRSYM    DATA     BYTE      P_SW3
      000000BAH   SFRSYM    DATA     BYTE      P_SW2
      000000A2H   SFRSYM    DATA     BYTE      P_SW1
      000000CEH   SFRSYM    DATA     BYTE      SPCTL
      000000F8H   SFRSYM    DATA     BYTE      P7
      000000E8H   SFRSYM    DATA     BYTE      P6
      000000C8H   SFRSYM    DATA     BYTE      P5
      000000C0H   SFRSYM    DATA     BYTE      P4
L251 LINKER/LOCATER V4.66.93.0                                                        11/11/2024  09:33:05  PAGE 25


      000000B0H   SFRSYM    DATA     BYTE      P3
      000000A0H   SFRSYM    DATA     BYTE      P2
      00000090H   SFRSYM    DATA     BYTE      P1
      00000080H   SFRSYM    DATA     BYTE      P0

      ---         MODULE    ---      ---       mcp4725
      00FF0E5CH   PUBLIC    CODE     ---       MCP4725_OutVol
      000000D0H   SFRSYM    DATA     BYTE      PSW
      0000009DH   SFRSYM    DATA     BYTE      IRCBAND
      00000097H   SFRSYM    DATA     BYTE      AUXR2
      000000EFH   SFRSYM    DATA     BYTE      AUXINTIF
      000000FDH   SFRSYM    DATA     BYTE      S4CON
      000000ACH   SFRSYM    DATA     BYTE      S3CON
      0000009AH   SFRSYM    DATA     BYTE      S2CON
      000000B7H   SFRSYM    DATA     BYTE      IPH
      000000CDH   SFRSYM    DATA     BYTE      SPSTAT
      000000DDH   SFRSYM    DATA     BYTE      T4T3M
      000000C1H   SFRSYM    DATA     BYTE      WDT_CONTR
      000000DFH   SFRSYM    DATA     BYTE      IP3
      000000F4H   SFRSYM    DATA     BYTE      USBCON
      000000B5H   SFRSYM    DATA     BYTE      IP2
      000000FFH   SFRSYM    DATA     BYTE      RSTCFG
      000000C7H   SFRSYM    DATA     BYTE      IAP_CONTR
      000000F9H   SFRSYM    DATA     BYTE      LINICR
      0000008EH   SFRSYM    DATA     BYTE      AUXR
      000000AFH   SFRSYM    DATA     BYTE      IE2
      00000088H   SFRSYM    DATA     BYTE      TCON
      00000089H   SFRSYM    DATA     BYTE      TMOD
      00000098H   SFRSYM    DATA     BYTE      SCON
      000000F1H   SFRSYM    DATA     BYTE      CANICR
      00000087H   SFRSYM    DATA     BYTE      PCON
      000000BCH   SFRSYM    DATA     BYTE      ADC_CONTR
      000000E7H   SFRSYM    DATA     BYTE      CMPCR2
      000000E6H   SFRSYM    DATA     BYTE      CMPCR1
      000000DEH   SFRSYM    DATA     BYTE      ADCCFG
      000000B8H   SFRSYM    DATA     BYTE      IP
      0000008FH   SFRSYM    DATA     BYTE      INTCLKO
      000000EEH   SFRSYM    DATA     BYTE      IP3H
      000000B6H   SFRSYM    DATA     BYTE      IP2H
      000000A8H   SFRSYM    DATA     BYTE      IE
      000000BBH   SFRSYM    DATA     BYTE      P_SW3
      000000BAH   SFRSYM    DATA     BYTE      P_SW2
      000000A2H   SFRSYM    DATA     BYTE      P_SW1
      000000CEH   SFRSYM    DATA     BYTE      SPCTL
      000000F8H   SFRSYM    DATA     BYTE      P7
      000000E8H   SFRSYM    DATA     BYTE      P6
      000000C8H   SFRSYM    DATA     BYTE      P5
      000000C0H   SFRSYM    DATA     BYTE      P4
      000000B0H   SFRSYM    DATA     BYTE      P3
      000000A0H   SFRSYM    DATA     BYTE      P2
      000000B1H   SFRSYM    DATA     BYTE      P3M1
      00000090H   SFRSYM    DATA     BYTE      P1
      000000B2H   SFRSYM    DATA     BYTE      P3M0
      00000080H   SFRSYM    DATA     BYTE      P0

      00FF0E5CH   BLOCK     CODE     ---       LVL=0
      R15         REGSYM    ---      BYTE      addr
      WR6         REGSYM    ---      WORD      voltage
      00FF0E60H   BLOCK     CODE     NEAR LAB  LVL=1
      000001C6H   SYMBOL    EDATA    DWORD     uiVolTemp
      R14         REGSYM    ---      BYTE      out_data
      00FF0EB0H   BLOCK     CODE     NEAR LAB  LVL=2
      R15         REGSYM    ---      BYTE      cnt
      ---         BLOCKEND  ---      ---       LVL=2
      00FF0EF4H   BLOCK     CODE     NEAR LAB  LVL=2
L251 LINKER/LOCATER V4.66.93.0                                                        11/11/2024  09:33:05  PAGE 26


      WR12        REGSYM    ---      WORD      i
      R15         REGSYM    ---      BYTE      d
      ---         BLOCKEND  ---      ---       LVL=2
      00FF0F30H   BLOCK     CODE     NEAR LAB  LVL=2
      R15         REGSYM    ---      BYTE      cnt
      ---         BLOCKEND  ---      ---       LVL=2
      00FF0F74H   BLOCK     CODE     NEAR LAB  LVL=2
      WR12        REGSYM    ---      WORD      i
      R15         REGSYM    ---      BYTE      d
      ---         BLOCKEND  ---      ---       LVL=2
      00FF0FADH   BLOCK     CODE     NEAR LAB  LVL=2
      R15         REGSYM    ---      BYTE      cnt
      ---         BLOCKEND  ---      ---       LVL=2
      00FF0FF1H   BLOCK     CODE     NEAR LAB  LVL=2
      WR14        REGSYM    ---      WORD      i
      R13         REGSYM    ---      BYTE      d
      ---         BLOCKEND  ---      ---       LVL=2
      ---         BLOCKEND  ---      ---       LVL=1
      00FF0E5CH   LINE      CODE     ---       #14
      00FF0E60H   LINE      CODE     ---       #15
      00FF0E60H   LINE      CODE     ---       #17
      00FF0E60H   LINE      CODE     ---       #18
      00FF0E69H   LINE      CODE     ---       #21
      00FF0E69H   LINE      CODE     ---       #22
      00FF0E69H   LINE      CODE     ---       #24
      00FF0E6FH   LINE      CODE     ---       #27
      00FF0E81H   LINE      CODE     ---       #28
      00FF0EACH   LINE      CODE     ---       #29
      00FF0EB0H   LINE      CODE     ---       #30
      00FF0EF4H   LINE      CODE     ---       #31
      00FF0F27H   LINE      CODE     ---       #32
      00FF0F30H   LINE      CODE     ---       #33
      00FF0F74H   LINE      CODE     ---       #34
      00FF0FA7H   LINE      CODE     ---       #35
      00FF0FADH   LINE      CODE     ---       #36
      00FF0FF1H   LINE      CODE     ---       #37
      00FF1024H   LINE      CODE     ---       #38
      00FF104CH   LINE      CODE     ---       #40
      ---         BLOCKEND  ---      ---       LVL=0

      ---         MODULE    ---      ---       ads1110
      000000D0H   SFRSYM    DATA     BYTE      PSW
      0000009DH   SFRSYM    DATA     BYTE      IRCBAND
      00000097H   SFRSYM    DATA     BYTE      AUXR2
      000000EFH   SFRSYM    DATA     BYTE      AUXINTIF
      000000FDH   SFRSYM    DATA     BYTE      S4CON
      000000ACH   SFRSYM    DATA     BYTE      S3CON
      0000009AH   SFRSYM    DATA     BYTE      S2CON
      000000B7H   SFRSYM    DATA     BYTE      IPH
      000000CDH   SFRSYM    DATA     BYTE      SPSTAT
      000000DDH   SFRSYM    DATA     BYTE      T4T3M
      000000C1H   SFRSYM    DATA     BYTE      WDT_CONTR
      000000DFH   SFRSYM    DATA     BYTE      IP3
      000000F4H   SFRSYM    DATA     BYTE      USBCON
      000000B5H   SFRSYM    DATA     BYTE      IP2
      000000FFH   SFRSYM    DATA     BYTE      RSTCFG
      000000C7H   SFRSYM    DATA     BYTE      IAP_CONTR
      000000F9H   SFRSYM    DATA     BYTE      LINICR
      0000008EH   SFRSYM    DATA     BYTE      AUXR
      000000AFH   SFRSYM    DATA     BYTE      IE2
      00000088H   SFRSYM    DATA     BYTE      TCON
      00000089H   SFRSYM    DATA     BYTE      TMOD
      00000098H   SFRSYM    DATA     BYTE      SCON
      000000F1H   SFRSYM    DATA     BYTE      CANICR
      00000087H   SFRSYM    DATA     BYTE      PCON
L251 LINKER/LOCATER V4.66.93.0                                                        11/11/2024  09:33:05  PAGE 27


      000000BCH   SFRSYM    DATA     BYTE      ADC_CONTR
      000000E7H   SFRSYM    DATA     BYTE      CMPCR2
      000000E6H   SFRSYM    DATA     BYTE      CMPCR1
      000000DEH   SFRSYM    DATA     BYTE      ADCCFG
      000000B8H   SFRSYM    DATA     BYTE      IP
      0000008FH   SFRSYM    DATA     BYTE      INTCLKO
      000000EEH   SFRSYM    DATA     BYTE      IP3H
      000000B6H   SFRSYM    DATA     BYTE      IP2H
      000000A8H   SFRSYM    DATA     BYTE      IE
      000000BBH   SFRSYM    DATA     BYTE      P_SW3
      000000BAH   SFRSYM    DATA     BYTE      P_SW2
      000000A2H   SFRSYM    DATA     BYTE      P_SW1
      000000CEH   SFRSYM    DATA     BYTE      SPCTL
      000000F8H   SFRSYM    DATA     BYTE      P7
      000000E8H   SFRSYM    DATA     BYTE      P6
      000000C8H   SFRSYM    DATA     BYTE      P5
      000000C0H   SFRSYM    DATA     BYTE      P4
      000000B0H   SFRSYM    DATA     BYTE      P3
      000000A0H   SFRSYM    DATA     BYTE      P2
      00000090H   SFRSYM    DATA     BYTE      P1
      00000080H   SFRSYM    DATA     BYTE      P0

      ---         MODULE    ---      ---       cmd
      00FF1F38H   PUBLIC    CODE     ---       Out4_20ma
      00FF11E0H   PUBLIC    CODE     ---       WriteSensorParam
      00FF201DH   PUBLIC    CODE     ---       CheckSum
      00FF1C1FH   PUBLIC    CODE     ---       ReadDoseRate
      00FF1E06H   PUBLIC    CODE     ---       SendSensorCmd
      00FF1B7EH   PUBLIC    CODE     ---       WaitSensorAck
      00FF2067H   PUBLIC    CODE     ---       SoundCtl
      00FF1D66H   PUBLIC    CODE     ---       LedCtl
      00FF1FADH   PUBLIC    CODE     ---       HndPcFrame
      00FF1BD0H   PUBLIC    CODE     ---       DwordToSmall
      00FF0B8EH   PUBLIC    CODE     ---       Read4_20ma
      00FF08AFH   PUBLIC    CODE     ---       ReadBatVol
      00FF1DD5H   PUBLIC    CODE     ---       ConnectSensor
      00FF1636H   PUBLIC    CODE     ---       DevVer
      00FF1EE7H   PUBLIC    CODE     ---       SendPcCmd
      00FF1CADH   PUBLIC    CODE     ---       WordToSmall
      00FF14D2H   PUBLIC    CODE     ---       ValidFrame
      00FF18B0H   PUBLIC    CODE     ---       ReadAlarmParam
      00FF104FH   PUBLIC    CODE     ---       HndPcCmd
      00FF1AD1H   PUBLIC    CODE     ---       FrameRevert
      00FF1591H   PUBLIC    CODE     ---       MakeFrame
      00FF12F7H   PUBLIC    CODE     ---       ReadSensorParam
      00FF17BFH   PUBLIC    CODE     ---       WriteAlarmParam
      00FF20ACH   PUBLIC    CODE     ---       ClearRecvData
      00000010H   PUBLIC    EDATA    BYTE      g_CrcFlag
      00000011H   PUBLIC    EDATA    WORD      g_CommIdleTime
      00000211H   PUBLIC    EDATA    BYTE      ?MakeFrame?BYTE
      000000D0H   SFRSYM    DATA     BYTE      PSW
      0000009DH   SFRSYM    DATA     BYTE      IRCBAND
      00000097H   SFRSYM    DATA     BYTE      AUXR2
      000000EFH   SFRSYM    DATA     BYTE      AUXINTIF
      000000FDH   SFRSYM    DATA     BYTE      S4CON
      000000ACH   SFRSYM    DATA     BYTE      S3CON
      0000009AH   SFRSYM    DATA     BYTE      S2CON
      000000B7H   SFRSYM    DATA     BYTE      IPH
      000000CDH   SFRSYM    DATA     BYTE      SPSTAT
      000000DDH   SFRSYM    DATA     BYTE      T4T3M
      000000C1H   SFRSYM    DATA     BYTE      WDT_CONTR
      000000DFH   SFRSYM    DATA     BYTE      IP3
      000000F4H   SFRSYM    DATA     BYTE      USBCON
      000000B5H   SFRSYM    DATA     BYTE      IP2
      000000FFH   SFRSYM    DATA     BYTE      RSTCFG
L251 LINKER/LOCATER V4.66.93.0                                                        11/11/2024  09:33:05  PAGE 28


      000000C7H   SFRSYM    DATA     BYTE      IAP_CONTR
      000000F9H   SFRSYM    DATA     BYTE      LINICR
      0000008EH   SFRSYM    DATA     BYTE      AUXR
      000000AFH   SFRSYM    DATA     BYTE      IE2
      00000088H   SFRSYM    DATA     BYTE      TCON
      00000089H   SFRSYM    DATA     BYTE      TMOD
      00000098H   SFRSYM    DATA     BYTE      SCON
      000000F1H   SFRSYM    DATA     BYTE      CANICR
      00000087H   SFRSYM    DATA     BYTE      PCON
      000000BCH   SFRSYM    DATA     BYTE      ADC_CONTR
      000000E7H   SFRSYM    DATA     BYTE      CMPCR2
      000000E6H   SFRSYM    DATA     BYTE      CMPCR1
      000000DEH   SFRSYM    DATA     BYTE      ADCCFG
      000000B8H   SFRSYM    DATA     BYTE      IP
      0000008FH   SFRSYM    DATA     BYTE      INTCLKO
      000000EEH   SFRSYM    DATA     BYTE      IP3H
      000000B6H   SFRSYM    DATA     BYTE      IP2H
      000000A8H   SFRSYM    DATA     BYTE      IE
      000000BBH   SFRSYM    DATA     BYTE      P_SW3
      000000BAH   SFRSYM    DATA     BYTE      P_SW2
      000000A2H   SFRSYM    DATA     BYTE      P_SW1
      000000CEH   SFRSYM    DATA     BYTE      SPCTL
      000000F8H   SFRSYM    DATA     BYTE      P7
      000000E8H   SFRSYM    DATA     BYTE      P6
      000000C8H   SFRSYM    DATA     BYTE      P5
      000000C0H   SFRSYM    DATA     BYTE      P4
      000000B0H   SFRSYM    DATA     BYTE      P3
      000000B3H   SFRSYM    DATA     BYTE      P4M1
      000000A0H   SFRSYM    DATA     BYTE      P2
      000000B4H   SFRSYM    DATA     BYTE      P4M0
      00000090H   SFRSYM    DATA     BYTE      P1
      00000080H   SFRSYM    DATA     BYTE      P0
      00FF22B7H   SYMBOL    HCONST   ---       ?tpl?0001
      00FF22BAH   SYMBOL    HCONST   ---       ?tpl?0002
      00FF22BDH   SYMBOL    HCONST   ---       ?tpl?0003
      00FF22C0H   SYMBOL    HCONST   ---       ?tpl?0004
      00FF22C3H   SYMBOL    HCONST   ---       ?tpl?0005
      00FF22C8H   SYMBOL    HCONST   ---       ?tpl?0006
      00FF22CDH   SYMBOL    HCONST   ---       ?tpl?0007

      00FF1BD0H   BLOCK     CODE     ---       LVL=0
      00000217H   SYMBOL    EDATA    DWORD     dat
      00FF1BD4H   BLOCK     CODE     NEAR LAB  LVL=1
      0000021BH   SYMBOL    EDATA    ---       buf
      R7          REGSYM    ---      BYTE      t
      0000021FH   SYMBOL    EDATA    DWORD     ret
      ---         BLOCKEND  ---      ---       LVL=1
      00FF1BD0H   LINE      CODE     ---       #25
      00FF1BD4H   LINE      CODE     ---       #26
      00FF1BD4H   LINE      CODE     ---       #31
      00FF1BE7H   LINE      CODE     ---       #32
      00FF1BEBH   LINE      CODE     ---       #33
      00FF1BF3H   LINE      CODE     ---       #34
      00FF1BF7H   LINE      CODE     ---       #35
      00FF1BFBH   LINE      CODE     ---       #36
      00FF1C03H   LINE      CODE     ---       #37
      00FF1C07H   LINE      CODE     ---       #39
      00FF1C1AH   LINE      CODE     ---       #40
      00FF1C1EH   LINE      CODE     ---       #41
      ---         BLOCKEND  ---      ---       LVL=0

      00FF1CADH   BLOCK     CODE     ---       LVL=0
      000001CDH   SYMBOL    EDATA    WORD      dat
      00FF1CB1H   BLOCK     CODE     NEAR LAB  LVL=1
      000001CFH   SYMBOL    EDATA    ---       buf
L251 LINKER/LOCATER V4.66.93.0                                                        11/11/2024  09:33:05  PAGE 29


      R7          REGSYM    ---      BYTE      t
      000001D1H   SYMBOL    EDATA    WORD      ret
      ---         BLOCKEND  ---      ---       LVL=1
      00FF1CADH   LINE      CODE     ---       #44
      00FF1CB1H   LINE      CODE     ---       #45
      00FF1CB1H   LINE      CODE     ---       #50
      00FF1CC4H   LINE      CODE     ---       #51
      00FF1CC8H   LINE      CODE     ---       #52
      00FF1CD0H   LINE      CODE     ---       #53
      00FF1CD4H   LINE      CODE     ---       #55
      00FF1CE7H   LINE      CODE     ---       #56
      00FF1CEBH   LINE      CODE     ---       #57
      ---         BLOCKEND  ---      ---       LVL=0
      R6          REGSYM    ---      BYTE      t
      R10         REGSYM    ---      BYTE      i
      R7          REGSYM    ---      BYTE      j
      R7          REGSYM    ---      BYTE      t

      00FF20ACH   BLOCK     CODE     ---       LVL=0
      REG=3       REGSYM    ---      ---       pUartData
      00FF20ACH   LINE      CODE     ---       #99
      00FF20B0H   LINE      CODE     ---       #101
      00FF20BCH   LINE      CODE     ---       #102
      00FF20C2H   LINE      CODE     ---       #103
      00FF20CBH   LINE      CODE     ---       #104
      ---         BLOCKEND  ---      ---       LVL=0

      00FF14D2H   BLOCK     CODE     ---       LVL=0
      REG=3       REGSYM    ---      ---       pUartData
      00FF14D6H   BLOCK     CODE     NEAR LAB  LVL=1
      R7          REGSYM    ---      BYTE      lcrc
      0000021BH   SYMBOL    EDATA    ---       tmp
      0000021EH   SYMBOL    EDATA    ---       tmp2
      00000221H   SYMBOL    EDATA    ---       FrmHead
      ---         BLOCKEND  ---      ---       LVL=1
      00FF14D2H   LINE      CODE     ---       #106
      00FF14D6H   LINE      CODE     ---       #107
      00FF14D6H   LINE      CODE     ---       #109
      00FF1504H   LINE      CODE     ---       #110
      00FF1504H   LINE      CODE     ---       #112
      00FF1519H   LINE      CODE     ---       #116
      00FF1522H   LINE      CODE     ---       #120
      00FF1525H   LINE      CODE     ---       #121
      00FF1525H   LINE      CODE     ---       #123
      00FF153AH   LINE      CODE     ---       #126
      00FF153DH   LINE      CODE     ---       #127
      00FF153DH   LINE      CODE     ---       #129
      00FF1547H   LINE      CODE     ---       #132
      00FF154AH   LINE      CODE     ---       #133
      00FF154AH   LINE      CODE     ---       #135
      00FF1553H   LINE      CODE     ---       #137
      00FF1568H   LINE      CODE     ---       #139
      00FF1589H   LINE      CODE     ---       #141
      00FF158CH   LINE      CODE     ---       #142
      00FF158CH   LINE      CODE     ---       #144
      00FF158EH   LINE      CODE     ---       #145
      ---         BLOCKEND  ---      ---       LVL=0

      00FF1591H   BLOCK     CODE     ---       LVL=0
      REG=3       REGSYM    ---      ---       pUartData
      R5          REGSYM    ---      BYTE      Addr
      R10         REGSYM    ---      BYTE      Cmd
      00000217H   SYMBOL    EDATA    ---       dat
      0000021BH   SYMBOL    EDATA    BYTE      length
      00FF159DH   BLOCK     CODE     NEAR LAB  LVL=1
L251 LINKER/LOCATER V4.66.93.0                                                        11/11/2024  09:33:05  PAGE 30


      R7          REGSYM    ---      BYTE      lcrc
      0000021CH   SYMBOL    EDATA    ---       FrmHead
      ---         BLOCKEND  ---      ---       LVL=1
      00FF1591H   LINE      CODE     ---       #148
      00FF159DH   LINE      CODE     ---       #149
      00FF159DH   LINE      CODE     ---       #153
      00FF15A3H   LINE      CODE     ---       #154
      00FF15B1H   LINE      CODE     ---       #155
      00FF15B6H   LINE      CODE     ---       #156
      00FF15BAH   LINE      CODE     ---       #157
      00FF15BEH   LINE      CODE     ---       #159
      00FF15D1H   LINE      CODE     ---       #160
      00FF15DAH   LINE      CODE     ---       #162
      00FF15EDH   LINE      CODE     ---       #163
      00FF15EDH   LINE      CODE     ---       #165
      00FF15FCH   LINE      CODE     ---       #169
      00FF1619H   LINE      CODE     ---       #172
      00FF1629H   LINE      CODE     ---       #173
      00FF1633H   LINE      CODE     ---       #174
      ---         BLOCKEND  ---      ---       LVL=0

      00FF1EE7H   BLOCK     CODE     ---       LVL=0
      R6          REGSYM    ---      BYTE      Addr
      R7          REGSYM    ---      BYTE      Cmd
      REG=0       REGSYM    ---      ---       dat
      R10         REGSYM    ---      BYTE      length
      00FF1EE7H   LINE      CODE     ---       #177
      00FF1EE9H   LINE      CODE     ---       #180
      00FF1EF8H   LINE      CODE     ---       #183
      00FF1F09H   LINE      CODE     ---       #185
      00FF1F0FH   LINE      CODE     ---       #186
      ---         BLOCKEND  ---      ---       LVL=0

      00FF1E06H   BLOCK     CODE     ---       LVL=0
      R14         REGSYM    ---      BYTE      Addr
      R15         REGSYM    ---      BYTE      Cmd
      REG=0       REGSYM    ---      ---       Data
      R10         REGSYM    ---      BYTE      length
      00FF1E06H   LINE      CODE     ---       #188
      00FF1E0CH   LINE      CODE     ---       #191
      00FF1E1BH   LINE      CODE     ---       #192
      00FF1E2CH   LINE      CODE     ---       #193
      00FF1E33H   LINE      CODE     ---       #194
      ---         BLOCKEND  ---      ---       LVL=0

      00FF1B7EH   BLOCK     CODE     ---       LVL=0
      R15         REGSYM    ---      BYTE      Cmd
      00FF1B82H   BLOCK     CODE     NEAR LAB  LVL=1
      00000217H   SYMBOL    EDATA    DWORD     to
      ---         BLOCKEND  ---      ---       LVL=1
      00FF1B7EH   LINE      CODE     ---       #197
      00FF1B82H   LINE      CODE     ---       #198
      00FF1B82H   LINE      CODE     ---       #199
      00FF1B82H   LINE      CODE     ---       #200
      00FF1B8AH   LINE      CODE     ---       #201
      00FF1B8CH   LINE      CODE     ---       #204
      00FF1B9CH   LINE      CODE     ---       #210
      00FF1BA9H   LINE      CODE     ---       #212
      00FF1BB1H   LINE      CODE     ---       #214
      00FF1BB5H   LINE      CODE     ---       #215
      00FF1BB5H   LINE      CODE     ---       #217
      00FF1BB5H   LINE      CODE     ---       #219
      00FF1BBCH   LINE      CODE     ---       #222
      00FF1BCCH   LINE      CODE     ---       #226
      00FF1BCDH   LINE      CODE     ---       #227
L251 LINKER/LOCATER V4.66.93.0                                                        11/11/2024  09:33:05  PAGE 31


      ---         BLOCKEND  ---      ---       LVL=0

      00FF1FADH   BLOCK     CODE     ---       LVL=0
      00FF1FAFH   BLOCK     CODE     NEAR LAB  LVL=1
      R15         REGSYM    ---      BYTE      ret
      ---         BLOCKEND  ---      ---       LVL=1
      00FF1FADH   LINE      CODE     ---       #231
      00FF1FAFH   LINE      CODE     ---       #232
      00FF1FAFH   LINE      CODE     ---       #233
      00FF1FB1H   LINE      CODE     ---       #234
      00FF1FBEH   LINE      CODE     ---       #237
      00FF1FC3H   LINE      CODE     ---       #238
      00FF1FC3H   LINE      CODE     ---       #239
      00FF1FCEH   LINE      CODE     ---       #240
      00FF1FD0H   LINE      CODE     ---       #241
      ---         BLOCKEND  ---      ---       LVL=0

      00FF1F38H   BLOCK     CODE     ---       LVL=0
      R5          REGSYM    ---      BYTE      index
      R6          REGSYM    ---      BYTE      val
      00FF1F3CH   BLOCK     CODE     NEAR LAB  LVL=1
      WR6         REGSYM    ---      WORD      v
      ---         BLOCKEND  ---      ---       LVL=1
      00FF1F38H   LINE      CODE     ---       #244
      00FF1F3CH   LINE      CODE     ---       #245
      00FF1F3CH   LINE      CODE     ---       #246
      00FF1F41H   LINE      CODE     ---       #248
      00FF1F49H   LINE      CODE     ---       #250
      00FF1F4DH   LINE      CODE     ---       #251
      00FF1F52H   LINE      CODE     ---       #254
      00FF1F52H   LINE      CODE     ---       #256
      00FF1F5DH   LINE      CODE     ---       #257
      00FF1F5FH   LINE      CODE     ---       #258
      ---         BLOCKEND  ---      ---       LVL=0

      00FF0B8EH   BLOCK     CODE     ---       LVL=0
      00FF0B90H   BLOCK     CODE     NEAR LAB  LVL=1
      000001C6H   SYMBOL    EDATA    BYTE      ret
      WR6         REGSYM    ---      INT       Voltage
      00FF0B95H   BLOCK     CODE     NEAR LAB  LVL=2
      R15         REGSYM    ---      BYTE      rd_data
      000001C7H   SYMBOL    EDATA    CHAR      ack
      000001C8H   SYMBOL    EDATA    ---       OutBuf
      00FF0BDBH   BLOCK     CODE     NEAR LAB  LVL=3
      R14         REGSYM    ---      BYTE      cnt
      ---         BLOCKEND  ---      ---       LVL=3
      00FF0C1FH   BLOCK     CODE     NEAR LAB  LVL=3
      WR12        REGSYM    ---      WORD      i
      R14         REGSYM    ---      BYTE      d
      ---         BLOCKEND  ---      ---       LVL=3
      00FF0C59H   BLOCK     CODE     NEAR LAB  LVL=3
      R14         REGSYM    ---      BYTE      cnt
      R13         REGSYM    ---      BYTE      io_data
      ---         BLOCKEND  ---      ---       LVL=3
      00FF0CE5H   BLOCK     CODE     NEAR LAB  LVL=3
      R14         REGSYM    ---      BYTE      cnt
      R13         REGSYM    ---      BYTE      io_data
      ---         BLOCKEND  ---      ---       LVL=3
      00FF0D72H   BLOCK     CODE     NEAR LAB  LVL=3
      R14         REGSYM    ---      BYTE      cnt
      R13         REGSYM    ---      BYTE      io_data
      ---         BLOCKEND  ---      ---       LVL=3
      ---         BLOCKEND  ---      ---       LVL=2
      ---         BLOCKEND  ---      ---       LVL=1
      00FF0B8EH   LINE      CODE     ---       #261
L251 LINKER/LOCATER V4.66.93.0                                                        11/11/2024  09:33:05  PAGE 32


      00FF0B90H   LINE      CODE     ---       #262
      00FF0B90H   LINE      CODE     ---       #263
      00FF0B95H   LINE      CODE     ---       #264
      00FF0B95H   LINE      CODE     ---       #265
      00FF0E3EH   LINE      CODE     ---       #267
      00FF0E49H   LINE      CODE     ---       #268
      00FF0E57H   LINE      CODE     ---       #269
      00FF0E59H   LINE      CODE     ---       #270
      ---         BLOCKEND  ---      ---       LVL=0

      00FF08AFH   BLOCK     CODE     ---       LVL=0
      00FF08B1H   BLOCK     CODE     NEAR LAB  LVL=1
      000001C6H   SYMBOL    EDATA    ---       bi
      WR6         REGSYM    ---      INT       Voltage
      R15         REGSYM    ---      BYTE      rd_data
      000001C9H   SYMBOL    EDATA    CHAR      ack
      000001CAH   SYMBOL    EDATA    ---       OutBuf
      00FF08F8H   BLOCK     CODE     NEAR LAB  LVL=2
      R14         REGSYM    ---      BYTE      cnt
      ---         BLOCKEND  ---      ---       LVL=2
      00FF093CH   BLOCK     CODE     NEAR LAB  LVL=2
      WR12        REGSYM    ---      WORD      i
      R14         REGSYM    ---      BYTE      d
      ---         BLOCKEND  ---      ---       LVL=2
      00FF0976H   BLOCK     CODE     NEAR LAB  LVL=2
      R14         REGSYM    ---      BYTE      cnt
      R13         REGSYM    ---      BYTE      io_data
      ---         BLOCKEND  ---      ---       LVL=2
      00FF0A02H   BLOCK     CODE     NEAR LAB  LVL=2
      R14         REGSYM    ---      BYTE      cnt
      R13         REGSYM    ---      BYTE      io_data
      ---         BLOCKEND  ---      ---       LVL=2
      00FF0A8FH   BLOCK     CODE     NEAR LAB  LVL=2
      R14         REGSYM    ---      BYTE      cnt
      R13         REGSYM    ---      BYTE      io_data
      ---         BLOCKEND  ---      ---       LVL=2
      ---         BLOCKEND  ---      ---       LVL=1
      00FF08AFH   LINE      CODE     ---       #273
      00FF08B1H   LINE      CODE     ---       #274
      00FF08B1H   LINE      CODE     ---       #276
      00FF08B1H   LINE      CODE     ---       #277
      00FF0B5BH   LINE      CODE     ---       #279
      00FF0B5FH   LINE      CODE     ---       #280
      00FF0B66H   LINE      CODE     ---       #281
      00FF0B7BH   LINE      CODE     ---       #282
      00FF0B89H   LINE      CODE     ---       #283
      00FF0B8BH   LINE      CODE     ---       #284
      ---         BLOCKEND  ---      ---       LVL=0

      00FF104FH   BLOCK     CODE     ---       LVL=0
      R11         REGSYM    ---      BYTE      ret
      000001C1H   SYMBOL    EDATA    ---       FrmHead
      00FF104FH   LINE      CODE     ---       #287
      00FF104FH   LINE      CODE     ---       #288
      00FF104FH   LINE      CODE     ---       #289
      00FF104FH   LINE      CODE     ---       #291
      00FF1066H   LINE      CODE     ---       #292
      00FF1183H   LINE      CODE     ---       #295
      00FF118AH   LINE      CODE     ---       #296
      00FF1195H   LINE      CODE     ---       #297
      00FF11A2H   LINE      CODE     ---       #298
      00FF11A5H   LINE      CODE     ---       #299
      00FF11ACH   LINE      CODE     ---       #300
      00FF11AFH   LINE      CODE     ---       #304
      00FF11B6H   LINE      CODE     ---       #305
L251 LINKER/LOCATER V4.66.93.0                                                        11/11/2024  09:33:05  PAGE 33


      00FF11BDH   LINE      CODE     ---       #306
      00FF11C4H   LINE      CODE     ---       #307
      00FF11CBH   LINE      CODE     ---       #308
      00FF11D2H   LINE      CODE     ---       #309
      00FF11D9H   LINE      CODE     ---       #311
      00FF11E0H   LINE      CODE     ---       #312
      00FF11E0H   LINE      CODE     ---       #314
      00FF11E0H   LINE      CODE     ---       #315
      ---         BLOCKEND  ---      ---       LVL=0

      00FF1AD1H   BLOCK     CODE     ---       LVL=0
      REG=3       REGSYM    ---      ---       fres
      00FF1AD5H   BLOCK     CODE     NEAR LAB  LVL=1
      000001C6H   SYMBOL    EDATA    BYTE      ret
      ---         BLOCKEND  ---      ---       LVL=1
      00FF1AD1H   LINE      CODE     ---       #317
      00FF1AD5H   LINE      CODE     ---       #318
      00FF1AD5H   LINE      CODE     ---       #319
      00FF1ADAH   LINE      CODE     ---       #320
      00FF1AF6H   LINE      CODE     ---       #322
      00FF1AFCH   LINE      CODE     ---       #323
      00FF1B18H   LINE      CODE     ---       #325
      00FF1B18H   LINE      CODE     ---       #326
      00FF1B23H   LINE      CODE     ---       #327
      00FF1B27H   LINE      CODE     ---       #328
      ---         BLOCKEND  ---      ---       LVL=0

      00FF1DD5H   BLOCK     CODE     ---       LVL=0
      R15         REGSYM    ---      BYTE      Addr
      00FF1DD9H   BLOCK     CODE     NEAR LAB  LVL=1
      R14         REGSYM    ---      BYTE      ret
      ---         BLOCKEND  ---      ---       LVL=1
      00FF1DD5H   LINE      CODE     ---       #330
      00FF1DD9H   LINE      CODE     ---       #331
      00FF1DD9H   LINE      CODE     ---       #332
      00FF1DDBH   LINE      CODE     ---       #333
      00FF1DE7H   LINE      CODE     ---       #335
      00FF1DEAH   LINE      CODE     ---       #336
      00FF1DF6H   LINE      CODE     ---       #337
      00FF1DF6H   LINE      CODE     ---       #338
      00FF1E01H   LINE      CODE     ---       #340
      00FF1E03H   LINE      CODE     ---       #341
      ---         BLOCKEND  ---      ---       LVL=0

      00FF1C1FH   BLOCK     CODE     ---       LVL=0
      R15         REGSYM    ---      BYTE      Addr
      00FF1C23H   BLOCK     CODE     NEAR LAB  LVL=1
      R14         REGSYM    ---      BYTE      ret
      000001C6H   SYMBOL    EDATA    ---       HostDose
      ---         BLOCKEND  ---      ---       LVL=1
      00FF1C1FH   LINE      CODE     ---       #343
      00FF1C23H   LINE      CODE     ---       #344
      00FF1C23H   LINE      CODE     ---       #345
      00FF1C25H   LINE      CODE     ---       #350
      00FF1C31H   LINE      CODE     ---       #358
      00FF1C48H   LINE      CODE     ---       #360
      00FF1C4BH   LINE      CODE     ---       #361
      00FF1C5AH   LINE      CODE     ---       #362
      00FF1C5AH   LINE      CODE     ---       #363
      00FF1C65H   LINE      CODE     ---       #364
      00FF1C67H   LINE      CODE     ---       #365
      ---         BLOCKEND  ---      ---       LVL=0

      00FF18B0H   BLOCK     CODE     ---       LVL=0
      R15         REGSYM    ---      BYTE      Addr
L251 LINKER/LOCATER V4.66.93.0                                                        11/11/2024  09:33:05  PAGE 34


      00FF18B4H   BLOCK     CODE     NEAR LAB  LVL=1
      R14         REGSYM    ---      BYTE      ret
      000001C6H   SYMBOL    EDATA    ---       HostAlarm
      000001DEH   SYMBOL    EDATA    ---       SensorAlarm
      ---         BLOCKEND  ---      ---       LVL=1
      00FF18B0H   LINE      CODE     ---       #367
      00FF18B4H   LINE      CODE     ---       #368
      00FF18B4H   LINE      CODE     ---       #369
      00FF18B6H   LINE      CODE     ---       #374
      00FF18C2H   LINE      CODE     ---       #376
      00FF18CEH   LINE      CODE     ---       #377
      00FF18E5H   LINE      CODE     ---       #378
      00FF18EDH   LINE      CODE     ---       #379
      00FF18F5H   LINE      CODE     ---       #380
      00FF18FDH   LINE      CODE     ---       #381
      00FF1905H   LINE      CODE     ---       #383
      00FF1908H   LINE      CODE     ---       #384
      00FF1917H   LINE      CODE     ---       #385
      00FF1917H   LINE      CODE     ---       #387
      00FF1922H   LINE      CODE     ---       #388
      00FF1924H   LINE      CODE     ---       #389
      ---         BLOCKEND  ---      ---       LVL=0

      00FF17BFH   BLOCK     CODE     ---       LVL=0
      R15         REGSYM    ---      BYTE      Addr
      00FF17C3H   BLOCK     CODE     NEAR LAB  LVL=1
      R14         REGSYM    ---      BYTE      ret
      000001C6H   SYMBOL    EDATA    ---       HostAlarm
      000001DEH   SYMBOL    EDATA    ---       SensorAlarm
      ---         BLOCKEND  ---      ---       LVL=1
      00FF17BFH   LINE      CODE     ---       #392
      00FF17C3H   LINE      CODE     ---       #393
      00FF17C3H   LINE      CODE     ---       #394
      00FF17C5H   LINE      CODE     ---       #399
      00FF17D1H   LINE      CODE     ---       #400
      00FF17E8H   LINE      CODE     ---       #402
      00FF17F0H   LINE      CODE     ---       #403
      00FF17F8H   LINE      CODE     ---       #404
      00FF1800H   LINE      CODE     ---       #405
      00FF1808H   LINE      CODE     ---       #407
      00FF1819H   LINE      CODE     ---       #409
      00FF1825H   LINE      CODE     ---       #410
      00FF1828H   LINE      CODE     ---       #411
      00FF1828H   LINE      CODE     ---       #412
      00FF1833H   LINE      CODE     ---       #414
      00FF1835H   LINE      CODE     ---       #415
      ---         BLOCKEND  ---      ---       LVL=0

      00FF12F7H   BLOCK     CODE     ---       LVL=0
      R15         REGSYM    ---      BYTE      Addr
      00FF12FBH   BLOCK     CODE     NEAR LAB  LVL=1
      R14         REGSYM    ---      BYTE      ret
      000001C6H   SYMBOL    EDATA    ---       HostParam
      000001FEH   SYMBOL    EDATA    ---       SensorParam
      00000212H   SYMBOL    EDATA    ---       temp
      ---         BLOCKEND  ---      ---       LVL=1
      00FF12F7H   LINE      CODE     ---       #418
      00FF12FBH   LINE      CODE     ---       #419
      00FF12FBH   LINE      CODE     ---       #420
      00FF12FDH   LINE      CODE     ---       #424
      00FF1318H   LINE      CODE     ---       #426
      00FF1329H   LINE      CODE     ---       #428
      00FF1335H   LINE      CODE     ---       #429
      00FF134CH   LINE      CODE     ---       #431
      00FF1354H   LINE      CODE     ---       #433
L251 LINKER/LOCATER V4.66.93.0                                                        11/11/2024  09:33:05  PAGE 35


      00FF135CH   LINE      CODE     ---       #435
      00FF136FH   LINE      CODE     ---       #436
      00FF137EH   LINE      CODE     ---       #437
      00FF1385H   LINE      CODE     ---       #438
      00FF1398H   LINE      CODE     ---       #439
      00FF13A7H   LINE      CODE     ---       #440
      00FF13AEH   LINE      CODE     ---       #441
      00FF13C1H   LINE      CODE     ---       #442
      00FF13D0H   LINE      CODE     ---       #443
      00FF13D7H   LINE      CODE     ---       #447
      00FF13E6H   LINE      CODE     ---       #448
      00FF13E9H   LINE      CODE     ---       #450
      00FF13E9H   LINE      CODE     ---       #451
      00FF13F4H   LINE      CODE     ---       #452
      00FF13F6H   LINE      CODE     ---       #453
      ---         BLOCKEND  ---      ---       LVL=0

      00FF11E0H   BLOCK     CODE     ---       LVL=0
      R15         REGSYM    ---      BYTE      Addr
      00FF11E4H   BLOCK     CODE     NEAR LAB  LVL=1
      R14         REGSYM    ---      BYTE      ret
      000001C6H   SYMBOL    EDATA    ---       HostParam
      000001FEH   SYMBOL    EDATA    ---       SensorParam
      00000212H   SYMBOL    EDATA    ---       temp
      ---         BLOCKEND  ---      ---       LVL=1
      00FF11E0H   LINE      CODE     ---       #457
      00FF11E4H   LINE      CODE     ---       #458
      00FF11E4H   LINE      CODE     ---       #459
      00FF11E6H   LINE      CODE     ---       #463
      00FF1201H   LINE      CODE     ---       #465
      00FF120DH   LINE      CODE     ---       #466
      00FF1224H   LINE      CODE     ---       #468
      00FF122CH   LINE      CODE     ---       #469
      00FF1234H   LINE      CODE     ---       #470
      00FF123FH   LINE      CODE     ---       #471
      00FF1252H   LINE      CODE     ---       #472
      00FF1265H   LINE      CODE     ---       #474
      00FF1270H   LINE      CODE     ---       #475
      00FF1283H   LINE      CODE     ---       #476
      00FF1296H   LINE      CODE     ---       #478
      00FF12A1H   LINE      CODE     ---       #479
      00FF12B4H   LINE      CODE     ---       #480
      00FF12C7H   LINE      CODE     ---       #482
      00FF12D8H   LINE      CODE     ---       #485
      00FF12E4H   LINE      CODE     ---       #486
      00FF12E7H   LINE      CODE     ---       #488
      00FF12E7H   LINE      CODE     ---       #489
      00FF12F2H   LINE      CODE     ---       #490
      00FF12F4H   LINE      CODE     ---       #491
      ---         BLOCKEND  ---      ---       LVL=0

      00FF2067H   BLOCK     CODE     ---       LVL=0
      R7          REGSYM    ---      BYTE      Ctl
      00FF2067H   LINE      CODE     ---       #493
      00FF2069H   LINE      CODE     ---       #495
      00FF206DH   LINE      CODE     ---       #497
      00FF2070H   LINE      CODE     ---       #498
      00FF2072H   LINE      CODE     ---       #499
      00FF2074H   LINE      CODE     ---       #502
      00FF2077H   LINE      CODE     ---       #503
      00FF207CH   LINE      CODE     ---       #504
      00FF207CH   LINE      CODE     ---       #505
      00FF2087H   LINE      CODE     ---       #506
      00FF2089H   LINE      CODE     ---       #507
      ---         BLOCKEND  ---      ---       LVL=0
L251 LINKER/LOCATER V4.66.93.0                                                        11/11/2024  09:33:05  PAGE 36



      00FF1D66H   BLOCK     CODE     ---       LVL=0
      REG=0       REGSYM    ---      ---       led
      00FF1D66H   LINE      CODE     ---       #509
      00FF1D66H   LINE      CODE     ---       #511
      00FF1D77H   LINE      CODE     ---       #514
      00FF1D7DH   LINE      CODE     ---       #516
      00FF1D80H   LINE      CODE     ---       #517
      00FF1D82H   LINE      CODE     ---       #520
      00FF1D85H   LINE      CODE     ---       #522
      00FF1D85H   LINE      CODE     ---       #524
      00FF1D8BH   LINE      CODE     ---       #526
      00FF1D8EH   LINE      CODE     ---       #527
      00FF1D90H   LINE      CODE     ---       #530
      00FF1D93H   LINE      CODE     ---       #531
      00FF1D93H   LINE      CODE     ---       #533
      00FF1D9EH   LINE      CODE     ---       #534
      00FF1DA0H   LINE      CODE     ---       #535
      ---         BLOCKEND  ---      ---       LVL=0
      REG=0       REGSYM    ---      ---       Light

      00FF1636H   BLOCK     CODE     ---       LVL=0
      R15         REGSYM    ---      BYTE      Addr
      00FF163AH   BLOCK     CODE     NEAR LAB  LVL=1
      000001C6H   SYMBOL    EDATA    ---       buf
      ---         BLOCKEND  ---      ---       LVL=1
      00FF1636H   LINE      CODE     ---       #589
      00FF163AH   LINE      CODE     ---       #590
      00FF163AH   LINE      CODE     ---       #591
      00FF165DH   LINE      CODE     ---       #593
      00FF1661H   LINE      CODE     ---       #595
      00FF1678H   LINE      CODE     ---       #596
      00FF167AH   LINE      CODE     ---       #599
      00FF1688H   LINE      CODE     ---       #602
      00FF169FH   LINE      CODE     ---       #603
      00FF16AAH   LINE      CODE     ---       #604
      00FF16ACH   LINE      CODE     ---       #607
      00FF16AFH   LINE      CODE     ---       #608
      00FF16AFH   LINE      CODE     ---       #609
      00FF16AFH   LINE      CODE     ---       #611
      00FF16BEH   LINE      CODE     ---       #612
      00FF16C0H   LINE      CODE     ---       #613
      ---         BLOCKEND  ---      ---       LVL=0

      00FF201DH   BLOCK     CODE     ---       LVL=0
      REG=7       REGSYM    ---      ---       dataBuf
      WR8         REGSYM    ---      WORD      len
      00FF2021H   BLOCK     CODE     NEAR LAB  LVL=1
      R11         REGSYM    ---      BYTE      i
      R10         REGSYM    ---      BYTE      lchecksum
      ---         BLOCKEND  ---      ---       LVL=1
      00FF201DH   LINE      CODE     ---       #626
      00FF2021H   LINE      CODE     ---       #627
      00FF2021H   LINE      CODE     ---       #628
      00FF2021H   LINE      CODE     ---       #629
      00FF2021H   LINE      CODE     ---       #630
      00FF2023H   LINE      CODE     ---       #631
      00FF2027H   LINE      CODE     ---       #633
      00FF2032H   LINE      CODE     ---       #634
      00FF203FH   LINE      CODE     ---       #635
      00FF2041H   LINE      CODE     ---       #636
      ---         BLOCKEND  ---      ---       LVL=0

      ---         MODULE    ---      ---       MwPro
      000000D0H   SFRSYM    DATA     BYTE      PSW
L251 LINKER/LOCATER V4.66.93.0                                                        11/11/2024  09:33:05  PAGE 37


      0000009DH   SFRSYM    DATA     BYTE      IRCBAND
      00000097H   SFRSYM    DATA     BYTE      AUXR2
      000000EFH   SFRSYM    DATA     BYTE      AUXINTIF
      000000FDH   SFRSYM    DATA     BYTE      S4CON
      000000ACH   SFRSYM    DATA     BYTE      S3CON
      0000009AH   SFRSYM    DATA     BYTE      S2CON
      000000B7H   SFRSYM    DATA     BYTE      IPH
      000000CDH   SFRSYM    DATA     BYTE      SPSTAT
      000000DDH   SFRSYM    DATA     BYTE      T4T3M
      000000C1H   SFRSYM    DATA     BYTE      WDT_CONTR
      000000DFH   SFRSYM    DATA     BYTE      IP3
      000000F4H   SFRSYM    DATA     BYTE      USBCON
      000000B5H   SFRSYM    DATA     BYTE      IP2
      000000FFH   SFRSYM    DATA     BYTE      RSTCFG
      000000C7H   SFRSYM    DATA     BYTE      IAP_CONTR
      000000F9H   SFRSYM    DATA     BYTE      LINICR
      0000008EH   SFRSYM    DATA     BYTE      AUXR
      000000AFH   SFRSYM    DATA     BYTE      IE2
      00000088H   SFRSYM    DATA     BYTE      TCON
      00000089H   SFRSYM    DATA     BYTE      TMOD
      00000098H   SFRSYM    DATA     BYTE      SCON
      000000F1H   SFRSYM    DATA     BYTE      CANICR
      00000087H   SFRSYM    DATA     BYTE      PCON
      000000BCH   SFRSYM    DATA     BYTE      ADC_CONTR
      000000E7H   SFRSYM    DATA     BYTE      CMPCR2
      000000E6H   SFRSYM    DATA     BYTE      CMPCR1
      000000DEH   SFRSYM    DATA     BYTE      ADCCFG
      000000B8H   SFRSYM    DATA     BYTE      IP
      0000008FH   SFRSYM    DATA     BYTE      INTCLKO
      000000EEH   SFRSYM    DATA     BYTE      IP3H
      000000B6H   SFRSYM    DATA     BYTE      IP2H
      000000A8H   SFRSYM    DATA     BYTE      IE
      000000BBH   SFRSYM    DATA     BYTE      P_SW3
      000000BAH   SFRSYM    DATA     BYTE      P_SW2
      000000A2H   SFRSYM    DATA     BYTE      P_SW1
      000000CEH   SFRSYM    DATA     BYTE      SPCTL
      000000F8H   SFRSYM    DATA     BYTE      P7
      000000E8H   SFRSYM    DATA     BYTE      P6
      000000C8H   SFRSYM    DATA     BYTE      P5
      000000C0H   SFRSYM    DATA     BYTE      P4
      000000B0H   SFRSYM    DATA     BYTE      P3
      000000A0H   SFRSYM    DATA     BYTE      P2
      00000090H   SFRSYM    DATA     BYTE      P1
      00000080H   SFRSYM    DATA     BYTE      P0
      REG=7       REGSYM    ---      ---       buf
      R10         REGSYM    ---      BYTE      len
      R7          REGSYM    ---      BYTE      dwSum
      R6          REGSYM    ---      BYTE      i
      R11         REGSYM    ---      BYTE      Bh
      R10         REGSYM    ---      BYTE      Bl
      R5          REGSYM    ---      BYTE      temp

      ---         MODULE    ---      ---       ?C?FPDIV
      00FF0046H   PUBLIC    CODE     ---       ?C?FPDIV

      ---         MODULE    ---      ---       ?C?FCAST
      00FF00D1H   PUBLIC    CODE     NEAR LAB  ?C?FCASTC
      00FF00CCH   PUBLIC    CODE     NEAR LAB  ?C?FCASTI
      00FF00C7H   PUBLIC    CODE     NEAR LAB  ?C?FCASTL

      ---         MODULE    ---      ---       ?C?CASTF
      00FF0104H   PUBLIC    CODE     NEAR LAB  ?C?CASTF

      ---         MODULE    ---      ---       PRINTF
      00FF0141H   PUBLIC    CODE     NEAR LAB  PRINTF
L251 LINKER/LOCATER V4.66.93.0                                                        11/11/2024  09:33:05  PAGE 38



      ---         MODULE    ---      ---       SPRINTF
      0000024EH   PUBLIC    EDATA    ---       ?SPRINTF?BYTE
      00FF016DH   PUBLIC    CODE     NEAR LAB  SPRINTF

      ---         MODULE    ---      ---       ?C?FPGETOPN
      00FF018DH   PUBLIC    CODE     ---       ?C?FPGETOPN2
      00FF01CAH   PUBLIC    CODE     ---       ?C?FPNANRESULT
      00FF01D2H   PUBLIC    CODE     ---       ?C?FPOVERFLOW
      00FF01A6H   PUBLIC    CODE     ---       ?C?FPRESULT
      00FF01BCH   PUBLIC    CODE     ---       ?C?FPRESULT2
      00FF01CFH   PUBLIC    CODE     ---       ?C?FPUNDERFLOW

      ---         MODULE    ---      ---       ?C?PRNFMT
      00FF020BH   PUBLIC    CODE     ---       ?C?PRNFMT

      ---         MODULE    ---      ---       ?C?FPCONVERT
      00FF0628H   PUBLIC    CODE     ---       ?C?FPCONVERT
      00FF06E0H   PUBLIC    CODE     ---       ?C?FPROUND

      ---         MODULE    ---      ---       ?C?FPMUL
      00FF0723H   PUBLIC    CODE     ---       ?C?FPMUL

      ---         MODULE    ---      ---       ?C?FTNPWR
      00FF07F3H   PUBLIC    CODE     ---       ?C?FTNPWR

      ---         MODULE    ---      ---       ?C_START
      00FF0000H   PUBLIC    CODE     ---       ?C?STARTUP
      00FF0000H   PUBLIC    CODE     ---       ?C_STARTUP

      ---         MODULE    ---      ---       ?C?INITEDATA
      00FF19ACH   PUBLIC    CODE     ---       ?C?INITEDATA

      ---         MODULE    ---      ---       ?C?INITHDATA
      00FF19D5H   PUBLIC    CODE     ---       ?C?INITHDATA

      ---         MODULE    ---      ---       ?C?SIDIV
      00FF082AH   PUBLIC    CODE     ---       ?C?SIDIV

      ---         MODULE    ---      ---       ?C?ULDIV
      00FF085EH   PUBLIC    CODE     NEAR LAB  ?C?ULDIV
      00FF085CH   PUBLIC    CODE     NEAR LAB  ?C?ULIDIV

      ---         MODULE    ---      ---       ATOI
      00FF16C3H   PUBLIC    CODE     ---       atoi?_

      ---         MODULE    ---      ---       STRLEN

      ---         MODULE    ---      ---       memcmp
      00FF1E36H   PUBLIC    CODE     ---       memcmp?_

      ---         MODULE    ---      ---       memcpy
      00FF2042H   PUBLIC    CODE     ---       memcpy?_

      ---         MODULE    ---      ---       memset
      00FF210CH   PUBLIC    CODE     ---       memset?_

      ---         MODULE    ---      ---       ?C?INITEDATA_END
      00FF2264H   PUBLIC    HCONST   WORD      ?C?INITEDATA_END

      ---         MODULE    ---      ---       ?C?INITHDATA_END
      00FF22ABH   PUBLIC    HCONST   WORD      ?C?INITHDATA_END

      ---         MODULE    ---      ---       ISDIGIT
      00FF219EH   PUBLIC    CODE     ---       isdigit?_
L251 LINKER/LOCATER V4.66.93.0                                                        11/11/2024  09:33:05  PAGE 39



      ---         MODULE    ---      ---       ISSPACE
      00FF2151H   PUBLIC    CODE     ---       isspace?_



*** WARNING L57: UNCALLED FUNCTION, IGNORED FOR OVERLAY PROCESS
    NAME:    putchar/uart

*** WARNING L16: UNCALLED SEGMENT, IGNORED FOR OVERLAY PROCESS
    NAME:    PRINTF/PRINTF

*** WARNING L16: UNCALLED SEGMENT, IGNORED FOR OVERLAY PROCESS
    NAME:    PUTCH/PRINTF

Program Size: data=8.4 edata+hdata=876 xdata=1280 const=320 code=8621
L251 RUN COMPLETE.  3 WARNING(S),  0 ERROR(S)
