L251 LINKER/LOCATER V4.66.93.0                                                          06/26/2024  16:41:43  PAGE 1


L251 LINKER/LOCATER V4.66.93.0, INVOKED BY:
D:\KEILMDK\C251\BIN\L251.EXE .\obj\main.obj, .\obj\uart.obj, .\obj\time.obj, .\obj\i2c.obj, .\obj\mcp4725.obj, .\obj\ads
>> 1110.obj, .\obj\cmd.obj, .\obj\MwPro.obj TO .\obj\PileCore PRINT (.\obj\PileCore.map) CASE REMOVEUNUSED CLASSES (EDAT
>> A (0X0-0XFFF), HDATA (0X0-0XFFF))


CPU MODE:     251 SOURCE MODE
INTR FRAME:   2 BYTES SAVED ON INTERRUPT
MEMORY MODEL: XSMALL WITH FLOATING POINT ARITHMETIC


INPUT MODULES INCLUDED:
  .\obj\main.obj (main)
         COMMENT TYPE 0: C251 V5.60.0
  .\obj\uart.obj (uart)
         COMMENT TYPE 0: C251 V5.60.0
  .\obj\time.obj (time)
         COMMENT TYPE 0: C251 V5.60.0
  .\obj\i2c.obj (i2c)
         COMMENT TYPE 0: C251 V5.60.0
  .\obj\mcp4725.obj (mcp4725)
         COMMENT TYPE 0: C251 V5.60.0
  .\obj\ads1110.obj (ads1110)
         COMMENT TYPE 0: C251 V5.60.0
  .\obj\cmd.obj (cmd)
         COMMENT TYPE 0: C251 V5.60.0
  .\obj\MwPro.obj (MwPro)
         COMMENT TYPE 0: C251 V5.60.0
  D:\KEILMDK\C251\LIB\C2SFPXS.LIB (?C?FPDIV)
         COMMENT TYPE 0: A251 V4.69.6.0
  D:\KEILMDK\C251\LIB\C2SFPXS.LIB (?C?FCAST)
         COMMENT TYPE 0: A251 V4.69.6.0
  D:\KEILMDK\C251\LIB\C2SFPXS.LIB (?C?CASTF)
         COMMENT TYPE 0: A251 V4.69.6.0
  D:\KEILMDK\C251\LIB\C2SFPXS.LIB (PRINTF)
         COMMENT TYPE 0: A251 V4.69.6.0
  D:\KEILMDK\C251\LIB\C2SFPXS.LIB (SPRINTF)
         COMMENT TYPE 0: A251 V4.69.6.0
  D:\KEILMDK\C251\LIB\C2SFPXS.LIB (?C?FPGETOPN)
         COMMENT TYPE 0: A251 V4.69.6.0
  D:\KEILMDK\C251\LIB\C2SFPXS.LIB (?C?PRNFMT)
         COMMENT TYPE 0: A251 V4.69.6.0
  D:\KEILMDK\C251\LIB\C2SFPXS.LIB (?C?FPCONVERT)
         COMMENT TYPE 0: A251 V4.69.6.0
  D:\KEILMDK\C251\LIB\C2SFPXS.LIB (?C?FPMUL)
         COMMENT TYPE 0: A251 V4.69.6.0
  D:\KEILMDK\C251\LIB\C2SFPXS.LIB (?C?FTNPWR)
         COMMENT TYPE 0: A251 V4.69.6.0
  D:\KEILMDK\C251\LIB\C2SXS.LIB (?C_START)
         COMMENT TYPE 0: A251 V4.69.6.0
  D:\KEILMDK\C251\LIB\C2SXS.LIB (?C?INITEDATA)
         COMMENT TYPE 0: A251 V4.69.6.0
  D:\KEILMDK\C251\LIB\C2SXS.LIB (?C?INITHDATA)
         COMMENT TYPE 0: A251 V4.69.6.0
  D:\KEILMDK\C251\LIB\C2SXS.LIB (?C?SIDIV)
         COMMENT TYPE 0: A251 V4.69.6.0
  D:\KEILMDK\C251\LIB\C2SXS.LIB (?C?ULDIV)
         COMMENT TYPE 0: A251 V4.69.6.0
  D:\KEILMDK\C251\LIB\C2SXS.LIB (ATOI)
         COMMENT TYPE 0: C251 V5.58.7
  D:\KEILMDK\C251\LIB\C2SXS.LIB (STRLEN)
         COMMENT TYPE 0: C251 V5.58.7
  D:\KEILMDK\C251\LIB\C2SXS.LIB (memcmp)
         COMMENT TYPE 0: C251 V5.58.7
  D:\KEILMDK\C251\LIB\C2SXS.LIB (memcpy)
         COMMENT TYPE 0: C251 V5.58.7
L251 LINKER/LOCATER V4.66.93.0                                                        06/26/2024  16:41:43  PAGE 2


  D:\KEILMDK\C251\LIB\C2SXS.LIB (memset)
         COMMENT TYPE 0: C251 V5.58.7
  D:\KEILMDK\C251\LIB\C2SXS.LIB (?C?INITEDATA_END)
         COMMENT TYPE 0: A251 V4.69.6.0
  D:\KEILMDK\C251\LIB\C2SXS.LIB (?C?INITHDATA_END)
         COMMENT TYPE 0: A251 V4.69.6.0
  D:\KEILMDK\C251\LIB\C2SXS.LIB (ISDIGIT)
         COMMENT TYPE 0: C251 V5.58.7
  D:\KEILMDK\C251\LIB\C2SXS.LIB (ISSPACE)
         COMMENT TYPE 0: C251 V5.58.7


ACTIVE MEMORY CLASSES OF MODULE:  .\obj\PileCore (main)

BASE        START       END         USED      MEMORY CLASS
==========================================================
000000H     000000H     000FFFH     00036DH   EDATA
000000H     000000H     000FFFH               HDATA
000000H     FF0000H     FFFFFFH     000150H   HCONST
FF0000H     FF0000H     FFFFFFH     002163H   CODE
010000H     010000H     01FFFFH     000500H   XDATA
000020H.0   000020H.0   00002FH.7   000000H.4 BIT
FF0000H     FF0000H     FFFFFFH     000004H   CONST
000000H     000000H     00007FH     000008H   DATA


MEMORY MAP OF MODULE:  .\obj\PileCore (main)


START     STOP      LENGTH    ALIGN  RELOC    MEMORY CLASS   SEGMENT NAME
=========================================================================
000000H   000007H   000008H   ---    AT..     DATA           "REG BANK 0"
000008H   00000FH   000008H   BYTE   UNIT     EDATA          ?ED?TIME
000010H   000012H   000003H   BYTE   UNIT     EDATA          ?ED?CMD
000013H   000013H   000001H   BYTE   UNIT     EDATA          ?ED?I2C
000014H.0 00001FH.7 00000CH.0 ---    ---      **GAP**
000020H.0 000020H.3 000000H.4 BIT    UNIT     BIT            ?BI?UART
000020H.4 000020H   000000H.4 ---    ---      **GAP**
000021H   0001C0H   0001A0H   BYTE   UNIT     EDATA          ?ED?UART
0001C1H   00024DH   00008DH   BYTE   UNIT     EDATA          _EDATA_GROUP_
00024EH   000281H   000034H   BYTE   UNIT     EDATA          ?ED?MAIN
000282H   000381H   000100H   BYTE   UNIT     EDATA          ?STACK
000382H   00FFFFH   00FC7EH   ---    ---      **GAP**
010000H   0104BFH   0004C0H   BYTE   INSEG    XDATA          ?XD?UART
0104C0H   0104FFH   000040H   BYTE   INSEG    XDATA          ?XD?MAIN
010500H   FEFFFFH   FDFB00H   ---    ---      **GAP**
FF0000H   FF0002H   000003H   ---    OFFS..   CODE           ?CO?start251?4
FF0003H   FF0005H   000003H   BYTE   INSEG    CODE           ?PR?DEBUGMSG?MAIN
FF0006H   FF0006H   000001H   BYTE   INSEG    CODE           ?PR?TASK_1S?MAIN
FF0007H   FF000AH   000004H   BYTE   UNIT     CONST          ?CO?PRINTF
FF000BH   FF000DH   000003H   ---    OFFS..   CODE           ?PR?IV?1
FF000EH   FF001AH   00000DH   BYTE   INSEG    CODE           ?PR?PUTCHAR?UART
FF001BH   FF001DH   000003H   ---    OFFS..   CODE           ?PR?IV?3
FF001EH   FF0022H   000005H   ---    ---      **GAP**
FF0023H   FF0025H   000003H   ---    OFFS..   CODE           ?PR?IV?4
FF0026H   FF0042H   00001DH   BYTE   INSEG    CODE           ?PR?IDLE?MAIN
FF0043H   FF0045H   000003H   ---    OFFS..   CODE           ?PR?IV?8
FF0046H   FF08AEH   000869H   BYTE   UNIT     CODE           ?C?LIB_CODE
FF08AFH   FF0B86H   0002D8H   BYTE   INSEG    CODE           ?PR?READBATVOL?CMD
FF0B87H   FF0E54H   0002CEH   BYTE   INSEG    CODE           ?PR?READ4_20MA?CMD
FF0E55H   FF1047H   0001F3H   BYTE   INSEG    CODE           ?PR?MCP4725_OUTVOL?MCP4725
FF1048H   FF11E3H   00019CH   BYTE   INSEG    CODE           ?PR?HNDPCCMD?CMD
FF11E4H   FF12E5H   000102H   BYTE   INSEG    CODE           ?PR?WRITESENSORPARAM?CMD
FF12E6H   FF13D2H   0000EDH   BYTE   INSEG    CODE           ?PR?READSENSORPARAM?CMD
FF13D3H   FF14ABH   0000D9H   BYTE   INSEG    CODE           ?PR?TIMERTASK?TIME
L251 LINKER/LOCATER V4.66.93.0                                                        06/26/2024  16:41:43  PAGE 3


FF14ACH   FF156AH   0000BFH   BYTE   INSEG    CODE           ?PR?VALIDFRAME?CMD
FF156BH   FF160FH   0000A5H   BYTE   INSEG    CODE           ?PR?MAKEFRAME?CMD
FF1610H   FF169CH   00008DH   BYTE   INSEG    CODE           ?PR?DEVVER?CMD
FF169DH   FF171BH   00007FH   BYTE   INSEG    CODE           ?PR?ATOI?_?ATOI
FF171CH   FF1798H   00007DH   BYTE   INSEG    CODE           ?PR?MAIN?MAIN
FF1799H   FF1813H   00007BH   BYTE   INSEG    CODE           ?PR?HNDINPUT?MAIN
FF1814H   FF188CH   000079H   BYTE   INSEG    CODE           ?PR?WRITEALARMPARAM?CMD
FF188DH   FF1903H   000077H   BYTE   INSEG    CODE           ?PR?READALARMPARAM?CMD
FF1904H   FF1916H   000013H   BYTE   UNIT     CODE           ?C_C51STARTUP
FF1917H   FF1970H   00005AH   BYTE   UNIT     CODE           ?C_C51STARTUP?2
FF1971H   FF1973H   000003H   BYTE   UNIT     CODE           ?C_C51STARTUP?3
FF1974H   FF19E0H   00006DH   BYTE   INSEG    CODE           ?PR?OUTCTL?MAIN
FF19E1H   FF1A49H   000069H   BYTE   INSEG    CODE           ?PR?WAITSENSORACK?CMD
FF1A4AH   FF1AA9H   000060H   BYTE   INSEG    CODE           ?PR?UART2_ISR?UART
FF1AAAH   FF1B05H   00005CH   BYTE   INSEG    CODE           ?PR?UART1_ISR?UART
FF1B06H   FF1B5EH   000059H   BYTE   INSEG    CODE           ?PR?FRAMEREVERT?CMD
FF1B5FH   FF1BB5H   000057H   BYTE   INSEG    CODE           ?PR?CHANNELALMLIGHTCLT?CMD
FF1BB6H   FF1C09H   000054H   BYTE   INSEG    CODE           ?PR?REPORTINPUT?MAIN
FF1C0AH   FF1C54H   00004BH   BYTE   INSEG    CODE           ?PR?READDOSERATE?CMD
FF1C55H   FF1C9EH   00004AH   BYTE   INSEG    CODE           ?PR?PRINTDATA?MAIN
FF1C9FH   FF1CE1H   000043H   BYTE   INSEG    CODE           ?PR?UART1_INIT?UART
FF1CE2H   FF1D1EH   00003DH   BYTE   INSEG    CODE           ?PR?OUTFLASH?MAIN
FF1D1FH   FF1D5BH   00003DH   BYTE   INSEG    CODE           ?PR?UART2_INIT?UART
FF1D5CH   FF1D96H   00003BH   BYTE   INSEG    CODE           ?PR?LEDCTL?CMD
FF1D97H   FF1DCAH   000034H   BYTE   INSEG    CODE           ?PR?GETKEY?MAIN
FF1DCBH   FF1DFEH   000034H   BYTE   INSEG    CODE           ?PR?SENDPCCMD?CMD
FF1DFFH   FF1E2FH   000031H   BYTE   INSEG    CODE           ?PR?CONNECTSENSOR?CMD
FF1E30H   FF1E5FH   000030H   BYTE   INSEG    CODE           ?PR?SENDSENSORCMD?CMD
FF1E60H   FF1E8EH   00002FH   BYTE   INSEG    CODE           ?PR?MEMCMP?_?MEMCMP
FF1E8FH   FF1EBAH   00002CH   BYTE   INSEG    CODE           ?PR?GETSTATUS?MAIN
FF1EBBH   FF1EE5H   00002BH   BYTE   INSEG    CODE           ?PR?IOINIT?MAIN
FF1EE6H   FF1F0DH   000028H   BYTE   INSEG    CODE           ?PR?SYSINIT?MAIN
FF1F0EH   FF1F35H   000028H   BYTE   INSEG    CODE           ?PR?OUT4_20MA?CMD
FF1F36H   FF1F5CH   000027H   BYTE   INSEG    CODE           ?PR?IOCTLTASK?MAIN
FF1F5DH   FF1F82H   000026H   BYTE   INSEG    CODE           ?PR?HNDPCFRAME?CMD
FF1F83H   FF1FA7H   000025H   BYTE   INSEG    CODE           ?PR?CHECKSUM?CMD
FF1FA8H   FF1FCCH   000025H   BYTE   INSEG    CODE           ?PR?MEMCPY?_?MEMCPY
FF1FCDH   FF1FEEH   000022H   BYTE   INSEG    CODE           ?PR?RUNLED?MAIN
FF1FEFH   FF2010H   000022H   BYTE   INSEG    CODE           ?PR?CLEARRECVDATA?CMD
FF2011H   FF2030H   000020H   BYTE   INSEG    CODE           ?PR?UART1HND?UART
FF2031H   FF204FH   00001FH   BYTE   INSEG    CODE           ?PR?LEDINIT?MAIN
FF2050H   FF206EH   00001FH   BYTE   INSEG    CODE           ?PR?UART1SEND?UART
FF206FH   FF208DH   00001FH   BYTE   INSEG    CODE           ?PR?UART2SEND?UART
FF208EH   FF20AAH   00001DH   BYTE   INSEG    CODE           ?PR?SOUNDCTL?CMD
FF20ABH   FF20C4H   00001AH   BYTE   INSEG    CODE           ?PR?POWEROFF?MAIN
FF20C5H   FF20DEH   00001AH   BYTE   INSEG    CODE           ?PR?MEMSET?_?MEMSET
FF20DFH   FF20F5H   000017H   BYTE   INSEG    CODE           ?PR?DELAY_MS?TIME
FF20F6H   FF2109H   000014H   BYTE   INSEG    CODE           ?PR?ISSPACE?_?ISSPACE
FF210AH   FF211CH   000013H   BYTE   INSEG    CODE           ?PR?TIMER0ISR?TIME
FF211DH   FF212FH   000013H   BYTE   INSEG    CODE           ?PR?TIMER1ISR?TIME
FF2130H   FF2142H   000013H   BYTE   INSEG    CODE           ?PR?TIMER0_INIT?TIME
FF2143H   FF2152H   000010H   BYTE   INSEG    CODE           ?PR?ISDIGIT?_?ISDIGIT
FF2153H   FF2160H   00000EH   BYTE   INSEG    CODE           ?PR?STRLEN?_?STRLEN
FF2161H   FF216BH   00000BH   BYTE   INSEG    CODE           ?PR?DELAY_US?TIME
FF216CH   FF221DH   0000B2H   BYTE   UNIT     HCONST         ?C_INITEDATA
FF221EH   FF2264H   000047H   BYTE   UNIT     HCONST         ?C_INITHDATA
FF2265H   FF2294H   000030H   BYTE   UNIT     HCONST         ?HC?MAIN
FF2295H   FF22BBH   000027H   BYTE   UNIT     HCONST         ?HC?CMD

* * * * * * * * *   R E M O V E D     S E G M E N T S   * * * * * * * *
   *DEL*:           000030H   BYTE   INSEG    CODE           ?PR?TESTRS485?MAIN
   *DEL*:           000016H   BYTE   INSEG    CODE           ?PR?ERROR?MAIN
   *DEL*:           000039H   BYTE   INSEG    CODE           ?PR?DEBUGINT?MAIN
   *DEL*:           00004DH   BYTE   INSEG    CODE           ?PR?OUTCHANNELLIGHTCTL?MAIN
   *DEL*:           000030H   BYTE   INSEG    CODE           ?PR?MAINTASK?MAIN
L251 LINKER/LOCATER V4.66.93.0                                                        06/26/2024  16:41:43  PAGE 4


   *DEL*:           000014H   BYTE   INSEG    CODE           ?PR?WAITCOMMIDLE?MAIN
   *DEL*:           000094H   BYTE   INSEG    CODE           ?PR?DUMPCMD?MAIN
   *DEL*:           000002H   BYTE   UNIT     EDATA          ?ED?DUMPCMD?MAIN
   *DEL*:           000025H   BYTE   INSEG    CODE           ?PR?CLEAR_UART1_BUF?UART
   *DEL*:           000025H   BYTE   INSEG    CODE           ?PR?CLEAR_UART2_BUF?UART
   *DEL*:           000016H   BYTE   INSEG    CODE           ?PR?UART1_SENDSTRING?UART
   *DEL*:           000011H   BYTE   INSEG    CODE           ?PR?UART1_SENDDATA?UART
   *DEL*:           000012H   BYTE   INSEG    CODE           ?PR?CLEARUART1BUF?UART
   *DEL*:           000016H   BYTE   INSEG    CODE           ?PR?CLEARUART2BUF?UART
   *DEL*:           00001DH   BYTE   INSEG    CODE           ?PR?UART2HND?UART
   *DEL*:           000014H   BYTE   INSEG    CODE           ?PR?TIMER1_INIT?TIME
   *DEL*:           000009H   BYTE   INSEG    CODE           ?PR?DELAY?TIME
   *DEL*:           00004FH   BYTE   INSEG    CODE           ?PR?FLOATTOSMALL?CMD
   *DEL*:           00004FH   BYTE   INSEG    CODE           ?PR?DWORDTOSMALL?CMD
   *DEL*:           000055H   BYTE   INSEG    CODE           ?PR?BYTETOSMALL?CMD
   *DEL*:           00003FH   BYTE   INSEG    CODE           ?PR?WORDTOSMALL?CMD
   *DEL*:           00000CH   BYTE   UNIT     EDATA          ?ED?DWORDTOSMALL?CMD
   *DEL*:           000006H   BYTE   UNIT     EDATA          ?ED?WORDTOSMALL?CMD
   *DEL*:           00000AH   BYTE   UNIT     EDATA          ?ED?BYTETOSMALL?CMD
   *DEL*:           00000CH   BYTE   UNIT     EDATA          ?ED?FLOATTOSMALL?CMD
   *DEL*:           00001EH   BYTE   INSEG    CODE           ?PR?CHECKSUM1?MWPRO
   *DEL*:           000035H   BYTE   INSEG    CODE           ?PR?BCDTOHEX?MWPRO



OVERLAY MAP OF MODULE:   .\obj\PileCore (main)


FUNCTION/MODULE              EDATA_GROUP
--> CALLED FUNCTION/MODULE   START  STOP
========================================
UART1_ISR/uart               ----- -----

*** NEW ROOT ***************

UART2_ISR/uart               ----- -----

*** NEW ROOT ***************

Timer0ISR/time               ----- -----

*** NEW ROOT ***************

Timer1ISR/time               ----- -----

*** NEW ROOT ***************

?C_C51STARTUP                ----- -----

*** NEW ROOT ***************

?C_C51STARTUP?3              ----- -----
  +--> main/main

main/main                    ----- -----
  +--> SysInit/main
  +--> IoInit/main
  +--> LedInit/main
  +--> delay_ms/time
  +--> Timer0_Init/time
  +--> Uart1_Init/uart
  +--> Uart2_Init/uart
  +--> memset?_/memset
  +--> Out4_20ma/cmd
  +--> TimerTask/time
L251 LINKER/LOCATER V4.66.93.0                                                        06/26/2024  16:41:43  PAGE 5


  +--> HndInput/main
  +--> ReportInput/main
  +--> Uart1Hnd/uart

SysInit/main                 ----- -----

IoInit/main                  ----- -----

LedInit/main                 ----- -----

delay_ms/time                ----- -----

Timer0_Init/time             ----- -----

Uart1_Init/uart              ----- -----

Uart2_Init/uart              ----- -----

memset?_/memset              ----- -----

Out4_20ma/cmd                ----- -----
  +--> MCP4725_OutVol/mcp4725
  +--> SendPcCmd/cmd

MCP4725_OutVol/mcp4725       01C6H 01C9H
  +--> ?C?ULIDIV/?C?ULDIV
  +--> delay_us/time

?C?ULIDIV/?C?ULDIV           ----- -----

delay_us/time                ----- -----

SendPcCmd/cmd                ----- -----
  +--> MakeFrame/cmd
  +--> Uart1Send/uart

MakeFrame/cmd                0217H 0220H
  +--> memcpy?_/memcpy
  +--> CheckSum/cmd
  +--> SPRINTF/SPRINTF

memcpy?_/memcpy              ----- -----

CheckSum/cmd                 ----- -----

SPRINTF/SPRINTF              0226H 024DH
  +--> OUT/SPRINTF

OUT/SPRINTF                  ----- -----
  +--> PUTCH/SPRINTF

PUTCH/SPRINTF                ----- -----

Uart1Send/uart               ----- -----

TimerTask/time               ----- -----
  +--> Task_1s/main
  +--> RunLed/main
  +--> IoCtlTask/main

Task_1s/main                 ----- -----

RunLed/main                  ----- -----

IoCtlTask/main               ----- -----
L251 LINKER/LOCATER V4.66.93.0                                                        06/26/2024  16:41:43  PAGE 6


  +--> OutFlash/main
  +--> OutCtl/main

OutFlash/main                ----- -----
  +--> OutCtl/main

OutCtl/main                  ----- -----

HndInput/main                ----- -----
  +--> GetKey/main
  +--> DebugMsg/main
  +--> GetStatus/main
  +--> PowerOff/main

GetKey/main                  ----- -----
  +--> delay_ms/time

DebugMsg/main                ----- -----
  +--> strlen?_/STRLEN

strlen?_/STRLEN              ----- -----

GetStatus/main               ----- -----
  +--> delay_ms/time

PowerOff/main                ----- -----

ReportInput/main             01C1H 01C1H
  +--> SendPcCmd/cmd

Uart1Hnd/uart                ----- -----
  +--> HndPcFrame/cmd

HndPcFrame/cmd               ----- -----
  +--> ValidFrame/cmd
  +--> HndPcCmd/cmd
  +--> ClearRecvData/cmd

ValidFrame/cmd               021BH 0225H
  +--> memcpy?_/memcpy
  +--> CheckSum/cmd
  +--> SPRINTF/SPRINTF
  +--> memcmp?_/memcmp

memcmp?_/memcmp              ----- -----

HndPcCmd/cmd                 01C1H 01C5H
  +--> memcpy?_/memcpy
  +--> SoundCtl/cmd
  +--> LedCtl/cmd
  +--> Out4_20ma/cmd
  +--> Read4_20ma/cmd
  +--> DevVer/cmd
  +--> ReadBatVol/cmd
  +--> ChannelAlmLightClt/cmd
  +--> ConnectSensor/cmd
  +--> ReadDoseRate/cmd
  +--> ReadAlarmParam/cmd
  +--> WriteAlarmParam/cmd
  +--> ReadSensorParam/cmd
  +--> WriteSensorParam/cmd
  +--> FrameRevert/cmd

SoundCtl/cmd                 ----- -----
  +--> SendPcCmd/cmd
L251 LINKER/LOCATER V4.66.93.0                                                        06/26/2024  16:41:43  PAGE 7



LedCtl/cmd                   ----- -----
  +--> memcpy?_/memcpy
  +--> SendPcCmd/cmd

Read4_20ma/cmd               01C6H 01CAH
  +--> delay_us/time
  +--> SendPcCmd/cmd

DevVer/cmd                   01C6H 01CCH
  +--> memcpy?_/memcpy
  +--> SendSensorCmd/cmd
  +--> ClearRecvData/cmd
  +--> SendPcCmd/cmd

SendSensorCmd/cmd            ----- -----
  +--> MakeFrame/cmd
  +--> Uart2Send/uart
  +--> WaitSensorAck/cmd

Uart2Send/uart               ----- -----

WaitSensorAck/cmd            0217H 021AH
  +--> PrintData/main
  +--> ValidFrame/cmd
  +--> Idle/main

PrintData/main               021BH 021CH
  +--> PRINTF/PRINTF

PRINTF/PRINTF                021DH 0244H
  +--> OUT/PRINTF

OUT/PRINTF                   ----- -----
  +--> PUTCH/PRINTF

PUTCH/PRINTF                 ----- -----
  +--> putchar/uart
  +--> OUT/PRINTF

putchar/uart                 ----- -----

Idle/main                    ----- -----
  +--> TimerTask/time
  +--> HndInput/main

ClearRecvData/cmd            ----- -----
  +--> memset?_/memset

ReadBatVol/cmd               01C6H 01CCH
  +--> delay_us/time
  +--> SendPcCmd/cmd

ChannelAlmLightClt/cmd       ----- -----
  +--> memcpy?_/memcpy
  +--> SendPcCmd/cmd

ConnectSensor/cmd            ----- -----
  +--> SendSensorCmd/cmd
  +--> SendPcCmd/cmd
  +--> ClearRecvData/cmd

ReadDoseRate/cmd             01C6H 01DEH
  +--> SendSensorCmd/cmd
  +--> memcpy?_/memcpy
L251 LINKER/LOCATER V4.66.93.0                                                        06/26/2024  16:41:43  PAGE 8


  +--> SendPcCmd/cmd
  +--> ClearRecvData/cmd

ReadAlarmParam/cmd           01C6H 01EDH
  +--> SendSensorCmd/cmd
  +--> memset?_/memset
  +--> memcpy?_/memcpy
  +--> SendPcCmd/cmd
  +--> ClearRecvData/cmd

WriteAlarmParam/cmd          01C6H 01EDH
  +--> memset?_/memset
  +--> memcpy?_/memcpy
  +--> SendSensorCmd/cmd
  +--> SendPcCmd/cmd
  +--> ClearRecvData/cmd

ReadSensorParam/cmd          01C6H 0216H
  +--> SendSensorCmd/cmd
  +--> memset?_/memset
  +--> memcpy?_/memcpy
  +--> atoi?_/ATOI
  +--> SendPcCmd/cmd
  +--> ClearRecvData/cmd

atoi?_/ATOI                  ----- -----
  +--> isspace?_/ISSPACE
  +--> isdigit?_/ISDIGIT

isspace?_/ISSPACE            ----- -----

isdigit?_/ISDIGIT            ----- -----

WriteSensorParam/cmd         01C6H 0216H
  +--> memset?_/memset
  +--> memcpy?_/memcpy
  +--> SPRINTF/SPRINTF
  +--> SendSensorCmd/cmd
  +--> SendPcCmd/cmd
  +--> ClearRecvData/cmd

FrameRevert/cmd              01C6H 01C6H
  +--> SendSensorCmd/cmd
  +--> SendPcCmd/cmd
  +--> ClearRecvData/cmd

*** NEW ROOT ***************

?C_C51STARTUP?2              ----- -----



PUBLIC SYMBOLS OF MODULE:  .\obj\PileCore (main)


      VALUE       CLASS    TYPE      PUBLIC SYMBOL NAME
      =================================================
      00FF0104H   CODE     NEAR LAB  ?C?CASTF
      000000FFH   NUMBER   ---       ?C?CODESEG
      00FF00D1H   CODE     NEAR LAB  ?C?FCASTC
      00FF00CCH   CODE     NEAR LAB  ?C?FCASTI
      00FF00C7H   CODE     NEAR LAB  ?C?FCASTL
      00FF0628H   CODE     ---       ?C?FPCONVERT
      00FF0046H   CODE     ---       ?C?FPDIV
      00FF018DH   CODE     ---       ?C?FPGETOPN2
L251 LINKER/LOCATER V4.66.93.0                                                        06/26/2024  16:41:43  PAGE 9


      00FF0723H   CODE     ---       ?C?FPMUL
      00FF01CAH   CODE     ---       ?C?FPNANRESULT
      00FF01D2H   CODE     ---       ?C?FPOVERFLOW
      00FF01A6H   CODE     ---       ?C?FPRESULT
      00FF01BCH   CODE     ---       ?C?FPRESULT2
      00FF06E0H   CODE     ---       ?C?FPROUND
      00FF01CFH   CODE     ---       ?C?FPUNDERFLOW
      00FF07F3H   CODE     ---       ?C?FTNPWR
      00FF1917H   CODE     ---       ?C?INITEDATA
      00FF221CH   HCONST   WORD      ?C?INITEDATA_END
      00FF1940H   CODE     ---       ?C?INITHDATA
      00FF2263H   HCONST   WORD      ?C?INITHDATA_END
      00FF020BH   CODE     ---       ?C?PRNFMT
      00FF082AH   CODE     ---       ?C?SIDIV
      00FF0000H   CODE     ---       ?C?STARTUP
      00FF085EH   CODE     NEAR LAB  ?C?ULDIV
      00FF085CH   CODE     NEAR LAB  ?C?ULIDIV
      00000001H   NUMBER   ---       ?C?XDATASEG
      00FF0000H   CODE     ---       ?C_STARTUP
      00000211H   EDATA    BYTE      ?MakeFrame?BYTE
      00000245H   EDATA    ---       ?printf?BYTE
      0000024EH   EDATA    ---       ?sprintf?BYTE
*SFR* 000000BCH   DATA     BYTE      ADC_CONTR
*SFR* 000000DEH   DATA     BYTE      ADCCFG
      00FF169DH   CODE     ---       atoi?_
*SFR* 000000EFH   DATA     BYTE      AUXINTIF
*SFR* 0000008EH   DATA     BYTE      AUXR
*SFR* 00000097H   DATA     BYTE      AUXR2
      00000020H.0 BIT      BIT       B_TX1_Busy
      00000020H.1 BIT      BIT       B_TX2_Busy
      00000020H.2 BIT      BIT       B_TX3_Busy
      00000020H.3 BIT      BIT       B_TX4_Busy
*DEL*:00000000H   CODE     ---       BcdToHex
*DEL*:00000000H   CODE     ---       ByteToSmall
*SFR* 000000F1H   DATA     BYTE      CANICR
      00FF1B5FH   CODE     ---       ChannelAlmLightClt
      00FF1F83H   CODE     ---       CheckSum
*DEL*:00000000H   CODE     ---       CheckSum1
*DEL*:00000000H   CODE     ---       Clear_Uart1_Buf
*DEL*:00000000H   CODE     ---       Clear_Uart2_Buf
      00FF1FEFH   CODE     ---       ClearRecvData
*DEL*:00000000H   CODE     ---       ClearUart1Buf
*DEL*:00000000H   CODE     ---       ClearUart2Buf
*SFR* 000000C1H.4 DATA     BIT       CLR_WDT
*SFR* 000000E6H   DATA     BYTE      CMPCR1
*SFR* 000000E7H   DATA     BYTE      CMPCR2
      00FF1DFFH   CODE     ---       ConnectSensor
*DEL*:00000000H   CODE     ---       DebugInt
      00FF0003H   CODE     ---       DebugMsg
*DEL*:00000000H   CODE     ---       Delay
      00FF20DFH   CODE     ---       delay_ms
      00FF2161H   CODE     ---       delay_us
      00FF1610H   CODE     ---       DevVer
*DEL*:00000000H   CODE     ---       DumpCmd
*DEL*:00000000H   CODE     ---       DwordToSmall
*SFR* 000000A8H.7 DATA     BIT       EA
*SFR* 000000BAH.7 DATA     BIT       EAXFR
*DEL*:00000000H   CODE     ---       Error
*SFR* 000000A8H.4 DATA     BIT       ES
*SFR* 000000AFH.0 DATA     BIT       ES2
*SFR* 000000A8H.1 DATA     BIT       ET0
*SFR* 000000A8H.3 DATA     BIT       ET1
*SFR* 000000AFH.2 DATA     BIT       ET2
*DEL*:00000000H   CODE     ---       FloatToSmall
      00FF1B06H   CODE     ---       FrameRevert
L251 LINKER/LOCATER V4.66.93.0                                                        06/26/2024  16:41:43  PAGE 10


      00000011H   EDATA    WORD      g_CommIdleTime
      00000010H   EDATA    BYTE      g_CrcFlag
      00000254H   EDATA    BYTE      g_Key_Confrom
      0000026AH   EDATA    BYTE      g_Key_Input
      00000269H   EDATA    BYTE      g_Key_Power
      0000025BH   EDATA    ---       g_OutChannelLight
      0000025FH   EDATA    ---       g_OutChannelStatus
      00000263H   EDATA    ---       g_Output
      0000024EH   EDATA    ---       g_OutStatus
      00010190H   XDATA    ---       g_UartData
      00FF1D97H   CODE     ---       GetKey
      00FF1E8FH   CODE     ---       GetStatus
      0000026BH   EDATA    DWORD     gIdleTime
      00000255H   EDATA    WORD      gRunTime
      00000257H   EDATA    DWORD     gTask1sTime
      00FF1799H   CODE     ---       HndInput
      00FF1048H   CODE     ---       HndPcCmd
      00FF1F5DH   CODE     ---       HndPcFrame
*SFR* 000000C7H   DATA     BYTE      IAP_CONTR
      00FF0026H   CODE     ---       Idle
*SFR* 000000A8H   DATA     BYTE      IE
*SFR* 000000AFH   DATA     BYTE      IE2
      0000026FH   EDATA    BYTE      Input_Status
*SFR* 0000008FH   DATA     BYTE      INTCLKO
      00FF1F36H   CODE     ---       IoCtlTask
      00FF1EBBH   CODE     ---       IoInit
*SFR* 000000B8H   DATA     BYTE      IP
*SFR* 000000B5H   DATA     BYTE      IP2
*SFR* 000000B6H   DATA     BYTE      IP2H
*SFR* 000000DFH   DATA     BYTE      IP3
*SFR* 000000EEH   DATA     BYTE      IP3H
*SFR* 000000B7H   DATA     BYTE      IPH
*SFR* 0000009DH   DATA     BYTE      IRCBAND
      00FF2143H   CODE     ---       isdigit?_
      00FF20F6H   CODE     ---       isspace?_
      00FF1D5CH   CODE     ---       LedCtl
      00FF2031H   CODE     ---       LedInit
*SFR* 000000F9H   DATA     BYTE      LINICR
      00FF171CH   CODE     ---       main
*DEL*:00000000H   CODE     ---       MainTask
      00FF156BH   CODE     ---       MakeFrame
      00FF0E55H   CODE     ---       MCP4725_OutVol
      00FF1E60H   CODE     ---       memcmp?_
      00FF1FA8H   CODE     ---       memcpy?_
      00FF20C5H   CODE     ---       memset?_
      00FF1F0EH   CODE     ---       Out4_20ma
*DEL*:00000000H   CODE     ---       OutChannelLightCtl
      00FF1974H   CODE     ---       OutCtl
      00FF1CE2H   CODE     ---       OutFlash
*SFR* 00000080H   DATA     BYTE      P0
*SFR* 00000094H   DATA     BYTE      P0M0
*SFR* 00000093H   DATA     BYTE      P0M1
*SFR* 00000090H   DATA     BYTE      P1
*SFR* 00000092H   DATA     BYTE      P1M0
*SFR* 00000091H   DATA     BYTE      P1M1
*SFR* 000000A0H   DATA     BYTE      P2
      00000013H   EDATA    BYTE      P2DIR
*SFR* 00000096H   DATA     BYTE      P2M0
*SFR* 00000095H   DATA     BYTE      P2M1
*SFR* 000000B0H   DATA     BYTE      P3
*SFR* 000000B2H   DATA     BYTE      P3M0
*SFR* 000000B1H   DATA     BYTE      P3M1
*SFR* 000000C0H   DATA     BYTE      P4
*SFR* 000000B4H   DATA     BYTE      P4M0
*SFR* 000000B3H   DATA     BYTE      P4M1
L251 LINKER/LOCATER V4.66.93.0                                                        06/26/2024  16:41:43  PAGE 11


*SFR* 000000C8H   DATA     BYTE      P5
*SFR* 000000CAH   DATA     BYTE      P5M0
*SFR* 000000C9H   DATA     BYTE      P5M1
*SFR* 000000E8H   DATA     BYTE      P6
*SFR* 000000F8H   DATA     BYTE      P7
*SFR* 000000A2H   DATA     BYTE      P_SW1
*SFR* 000000BAH   DATA     BYTE      P_SW2
*SFR* 000000BBH   DATA     BYTE      P_SW3
*SFR* 00000087H   DATA     BYTE      PCON
      00FF20ABH   CODE     ---       PowerOff
      00FF1C55H   CODE     ---       PrintData
      00FF0141H   CODE     NEAR LAB  printf
*SFR* 000000B8H.4 DATA     BIT       PS
*SFR* 000000B5H.0 DATA     BIT       PS2
*SFR* 000000B6H.0 DATA     BIT       PS2H
*SFR* 000000B7H.4 DATA     BIT       PSH
*SFR* 000000D0H   DATA     BYTE      PSW
*SFR* 000000B8H.1 DATA     BIT       PT0
*SFR* 000000B7H.1 DATA     BIT       PT0H
      00FF000EH   CODE     ---       putchar
      00FF0B87H   CODE     ---       Read4_20ma
      00FF188DH   CODE     ---       ReadAlarmParam
      00FF08AFH   CODE     ---       ReadBatVol
      00FF1C0AH   CODE     ---       ReadDoseRate
      00FF12E6H   CODE     ---       ReadSensorParam
*SFR* 00000098H.4 DATA     BIT       REN
      00FF1BB6H   CODE     ---       ReportInput
*SFR* 00000098H.0 DATA     BIT       RI
*SFR* 000000FFH   DATA     BYTE      RSTCFG
      00FF1FCDH   CODE     ---       RunLed
      00000021H   EDATA    ---       RX1_Buffer
      000001B7H   EDATA    BYTE      RX1_Cnt
      000001B1H   EDATA    WORD      Rx1_Timer
      00010000H   XDATA    ---       RX2_Buffer
      000001BAH   EDATA    BYTE      RX2_Cnt
      000001B3H   EDATA    WORD      Rx2_Timer
      000100C8H   XDATA    ---       RX3_Buffer
      000001BBH   EDATA    BYTE      RX3_Cnt
      000001B5H   EDATA    WORD      Rx3_Timer
      000000E9H   EDATA    ---       RX4_Buffer
      000001BDH   EDATA    BYTE      RX4_Cnt
      000001B8H   EDATA    WORD      Rx4_Timer
*SFR* 0000009BH   DATA     BYTE      S2BUF
*SFR* 0000009AH   DATA     BYTE      S2CON
*SFR* 0000009AH.4 DATA     BIT       S2REN
*SFR* 0000009AH.0 DATA     BIT       S2RI
*SFR* 0000009AH.1 DATA     BIT       S2TI
*SFR* 000000ACH   DATA     BYTE      S3CON
*SFR* 000000FDH   DATA     BYTE      S4CON
*SFR* 00000099H   DATA     BYTE      SBUF
*SFR* 00000098H   DATA     BYTE      SCON
      00FF1DCBH   CODE     ---       SendPcCmd
      00FF1E30H   CODE     ---       SendSensorCmd
      00FF208EH   CODE     ---       SoundCtl
*SFR* 000000CEH   DATA     BYTE      SPCTL
      00FF016DH   CODE     NEAR LAB  sprintf
*SFR* 000000CDH   DATA     BYTE      SPSTAT
      00FF2153H   CODE     ---       strlen?_
      000104C0H   XDATA    ---       StrTmp
      00FF1EE6H   CODE     ---       SysInit
*SFR* 000000D6H   DATA     BYTE      T2H
*SFR* 000000D7H   DATA     BYTE      T2L
*SFR* 0000008EH.4 DATA     BIT       T2R
*SFR* 0000008EH.2 DATA     BIT       T2x12
*SFR* 000000DDH   DATA     BYTE      T4T3M
L251 LINKER/LOCATER V4.66.93.0                                                        06/26/2024  16:41:43  PAGE 12


      00FF0006H   CODE     ---       Task_1s
*SFR* 00000088H   DATA     BYTE      TCON
*DEL*:00000000H   CODE     ---       TestRs485
*SFR* 0000008CH   DATA     BYTE      TH0
*SFR* 0000008DH   DATA     BYTE      TH1
*SFR* 00000098H.1 DATA     BIT       TI
      00000008H   EDATA    WORD      Time1s
      00FF2130H   CODE     ---       Timer0_Init
      0000000AH   EDATA    WORD      Timer0Cnt
      00FF210AH   CODE     ---       Timer0ISR
*DEL*:00000000H   CODE     ---       Timer1_Init
      0000000CH   EDATA    WORD      Timer1Cnt
      00FF211DH   CODE     ---       Timer1ISR
      00FF13D3H   CODE     ---       TimerTask
*SFR* 0000008AH   DATA     BYTE      TL0
*SFR* 0000008BH   DATA     BYTE      TL1
*SFR* 00000089H   DATA     BYTE      TMOD
*SFR* 00000088H.4 DATA     BIT       TR0
*SFR* 00000088H.6 DATA     BIT       TR1
      000001BCH   EDATA    BYTE      TX1_Cnt
      000001BEH   EDATA    BYTE      TX2_Cnt
      000001BFH   EDATA    BYTE      TX3_Cnt
      000001C0H   EDATA    BYTE      TX4_Cnt
      00FF1C9FH   CODE     ---       Uart1_Init
      00FF1AAAH   CODE     ---       UART1_ISR
*DEL*:00000000H   CODE     ---       UART1_SendData
*DEL*:00000000H   CODE     ---       UART1_SendString
      00FF2011H   CODE     ---       Uart1Hnd
      00FF2050H   CODE     ---       Uart1Send
      00FF1D1FH   CODE     ---       Uart2_Init
      00FF1A4AH   CODE     ---       UART2_ISR
*DEL*:00000000H   CODE     ---       Uart2Hnd
      00FF206FH   CODE     ---       Uart2Send
*SFR* 000000F4H   DATA     BYTE      USBCON
      00FF14ACH   CODE     ---       ValidFrame
      00FF228DH   HCONST   ---       VERSION
*DEL*:00000000H   CODE     ---       WaitCommIdle
      00FF19E1H   CODE     ---       WaitSensorAck
*SFR* 000000C1H   DATA     BYTE      WDT_CONTR
*DEL*:00000000H   CODE     ---       WordToSmall
      00FF1814H   CODE     ---       WriteAlarmParam
      00FF11E4H   CODE     ---       WriteSensorParam
*SFR* 000000E9H   DATA     BYTE      WTST



SYMBOL TABLE OF MODULE:  .\obj\PileCore (main)

      VALUE       REP       CLASS    TYPE      SYMBOL NAME
      ====================================================
      ---         MODULE    ---      ---       main
      00FF228DH   PUBLIC    HCONST   ---       VERSION
      00FF0026H   PUBLIC    CODE     ---       Idle
      00FF1C55H   PUBLIC    CODE     ---       PrintData
      00FF0003H   PUBLIC    CODE     ---       DebugMsg
      00FF1BB6H   PUBLIC    CODE     ---       ReportInput
      00FF0006H   PUBLIC    CODE     ---       Task_1s
      00FF171CH   PUBLIC    CODE     ---       main
      00FF1E8FH   PUBLIC    CODE     ---       GetStatus
      00FF1CE2H   PUBLIC    CODE     ---       OutFlash
      00FF2031H   PUBLIC    CODE     ---       LedInit
      00FF20ABH   PUBLIC    CODE     ---       PowerOff
      00FF1799H   PUBLIC    CODE     ---       HndInput
      00FF1D97H   PUBLIC    CODE     ---       GetKey
      00FF1FCDH   PUBLIC    CODE     ---       RunLed
L251 LINKER/LOCATER V4.66.93.0                                                        06/26/2024  16:41:43  PAGE 13


      00FF1EBBH   PUBLIC    CODE     ---       IoInit
      00FF1EE6H   PUBLIC    CODE     ---       SysInit
      00FF1974H   PUBLIC    CODE     ---       OutCtl
      00FF1F36H   PUBLIC    CODE     ---       IoCtlTask
      0000024EH   PUBLIC    EDATA    ---       g_OutStatus
      00000254H   PUBLIC    EDATA    BYTE      g_Key_Confrom
      00000255H   PUBLIC    EDATA    WORD      gRunTime
      00000257H   PUBLIC    EDATA    DWORD     gTask1sTime
      0000025BH   PUBLIC    EDATA    ---       g_OutChannelLight
      0000025FH   PUBLIC    EDATA    ---       g_OutChannelStatus
      00000263H   PUBLIC    EDATA    ---       g_Output
      00000269H   PUBLIC    EDATA    BYTE      g_Key_Power
      0000026AH   PUBLIC    EDATA    BYTE      g_Key_Input
      0000026BH   PUBLIC    EDATA    DWORD     gIdleTime
      0000026FH   PUBLIC    EDATA    BYTE      Input_Status
      000104C0H   PUBLIC    XDATA    ---       StrTmp
      00000094H   SFRSYM    DATA     BYTE      P0M0
      000000D0H   SFRSYM    DATA     BYTE      PSW
      000000BAH.7 SFRSYM    DATA     BIT       EAXFR
      0000009DH   SFRSYM    DATA     BYTE      IRCBAND
      00000097H   SFRSYM    DATA     BYTE      AUXR2
      000000EFH   SFRSYM    DATA     BYTE      AUXINTIF
      000000FDH   SFRSYM    DATA     BYTE      S4CON
      000000ACH   SFRSYM    DATA     BYTE      S3CON
      0000009AH   SFRSYM    DATA     BYTE      S2CON
      000000B7H   SFRSYM    DATA     BYTE      IPH
      000000CDH   SFRSYM    DATA     BYTE      SPSTAT
      000000DDH   SFRSYM    DATA     BYTE      T4T3M
      000000C1H   SFRSYM    DATA     BYTE      WDT_CONTR
      000000E9H   SFRSYM    DATA     BYTE      WTST
      000000DFH   SFRSYM    DATA     BYTE      IP3
      000000F4H   SFRSYM    DATA     BYTE      USBCON
      000000B5H   SFRSYM    DATA     BYTE      IP2
      000000FFH   SFRSYM    DATA     BYTE      RSTCFG
      000000C7H   SFRSYM    DATA     BYTE      IAP_CONTR
      000000F9H   SFRSYM    DATA     BYTE      LINICR
      0000008EH   SFRSYM    DATA     BYTE      AUXR
      000000AFH   SFRSYM    DATA     BYTE      IE2
      00000088H   SFRSYM    DATA     BYTE      TCON
      00000089H   SFRSYM    DATA     BYTE      TMOD
      00000098H   SFRSYM    DATA     BYTE      SCON
      000000F1H   SFRSYM    DATA     BYTE      CANICR
      00000087H   SFRSYM    DATA     BYTE      PCON
      000000BCH   SFRSYM    DATA     BYTE      ADC_CONTR
      000000E7H   SFRSYM    DATA     BYTE      CMPCR2
      000000E6H   SFRSYM    DATA     BYTE      CMPCR1
      000000DEH   SFRSYM    DATA     BYTE      ADCCFG
      000000B8H   SFRSYM    DATA     BYTE      IP
      0000008FH   SFRSYM    DATA     BYTE      INTCLKO
      000000EEH   SFRSYM    DATA     BYTE      IP3H
      000000B6H   SFRSYM    DATA     BYTE      IP2H
      000000A8H   SFRSYM    DATA     BYTE      IE
      000000BBH   SFRSYM    DATA     BYTE      P_SW3
      000000BAH   SFRSYM    DATA     BYTE      P_SW2
      000000A2H   SFRSYM    DATA     BYTE      P_SW1
      000000CEH   SFRSYM    DATA     BYTE      SPCTL
      000000F8H   SFRSYM    DATA     BYTE      P7
      000000A8H.7 SFRSYM    DATA     BIT       EA
      000000E8H   SFRSYM    DATA     BYTE      P6
      000000C8H   SFRSYM    DATA     BYTE      P5
      000000C0H   SFRSYM    DATA     BYTE      P4
      000000C9H   SFRSYM    DATA     BYTE      P5M1
      000000B0H   SFRSYM    DATA     BYTE      P3
      000000B3H   SFRSYM    DATA     BYTE      P4M1
      000000CAH   SFRSYM    DATA     BYTE      P5M0
L251 LINKER/LOCATER V4.66.93.0                                                        06/26/2024  16:41:43  PAGE 14


      000000A0H   SFRSYM    DATA     BYTE      P2
      000000B1H   SFRSYM    DATA     BYTE      P3M1
      000000B4H   SFRSYM    DATA     BYTE      P4M0
      00000090H   SFRSYM    DATA     BYTE      P1
      00000095H   SFRSYM    DATA     BYTE      P2M1
      000000B2H   SFRSYM    DATA     BYTE      P3M0
      00000080H   SFRSYM    DATA     BYTE      P0
      00000091H   SFRSYM    DATA     BYTE      P1M1
      00000096H   SFRSYM    DATA     BYTE      P2M0
      00000092H   SFRSYM    DATA     BYTE      P1M0
      00000093H   SFRSYM    DATA     BYTE      P0M1

      00FF0003H   BLOCK     CODE     ---       LVL=0
      REG=1       REGSYM    ---      ---       msg
      00FF0003H   LINE      CODE     ---       #35
      00FF0003H   LINE      CODE     ---       #36
      00FF0003H   LINE      CODE     ---       #37
      ---         BLOCKEND  ---      ---       LVL=0
      WR14        REGSYM    ---      INT       msg
      REG=3       REGSYM    ---      ---       dat

      00FF1FCDH   BLOCK     CODE     ---       LVL=0
      WR6         REGSYM    ---      WORD      dt
      00000270H   SYMBOL    EDATA    WORD      tm
      00FF1FCDH   LINE      CODE     ---       #78
      00FF1FCDH   LINE      CODE     ---       #79
      00FF1FCDH   LINE      CODE     ---       #81
      00FF1FCDH   LINE      CODE     ---       #82
      00FF1FD5H   LINE      CODE     ---       #84
      00FF1FDBH   LINE      CODE     ---       #86
      00FF1FE1H   LINE      CODE     ---       #87
      00FF1FE4H   LINE      CODE     ---       #88
      00FF1FE5H   LINE      CODE     ---       #89
      00FF1FEBH   LINE      CODE     ---       #91
      00FF1FEEH   LINE      CODE     ---       #92
      ---         BLOCKEND  ---      ---       LVL=0

      00FF0026H   BLOCK     CODE     ---       LVL=0
      DR12        REGSYM    ---      DWORD     time
      00FF0026H   LINE      CODE     ---       #95
      00FF002AH   LINE      CODE     ---       #97
      00FF0030H   LINE      CODE     ---       #99
      00FF0032H   LINE      CODE     ---       #101
      00FF0035H   LINE      CODE     ---       #102
      00FF0038H   LINE      CODE     ---       #103
      00FF0040H   LINE      CODE     ---       #104
      ---         BLOCKEND  ---      ---       LVL=0

      00FF1EE6H   BLOCK     CODE     ---       LVL=0
      00FF1EE6H   LINE      CODE     ---       #106
      00FF1EE6H   LINE      CODE     ---       #108
      00FF1EF3H   LINE      CODE     ---       #109
      00FF1F01H   LINE      CODE     ---       #110
      00FF1F0DH   LINE      CODE     ---       #111
      ---         BLOCKEND  ---      ---       LVL=0

      00FF1EBBH   BLOCK     CODE     ---       LVL=0
      00FF1EBBH   LINE      CODE     ---       #113
      00FF1EBBH   LINE      CODE     ---       #115
      00FF1EBEH   LINE      CODE     ---       #116
      00FF1EC1H   LINE      CODE     ---       #118
      00FF1EC7H   LINE      CODE     ---       #119
      00FF1ECDH   LINE      CODE     ---       #120
      00FF1ED3H   LINE      CODE     ---       #121
      00FF1ED9H   LINE      CODE     ---       #122
L251 LINKER/LOCATER V4.66.93.0                                                        06/26/2024  16:41:43  PAGE 15


      00FF1EDFH   LINE      CODE     ---       #123
      00FF1EE5H   LINE      CODE     ---       #124
      ---         BLOCKEND  ---      ---       LVL=0

      00FF1974H   BLOCK     CODE     ---       LVL=0
      R11         REGSYM    ---      BYTE      id
      R10         REGSYM    ---      BYTE      st
      00FF1974H   LINE      CODE     ---       #152
      00FF1976H   LINE      CODE     ---       #154
      00FF1980H   LINE      CODE     ---       #156
      00FF1980H   LINE      CODE     ---       #157
      00FF1980H   LINE      CODE     ---       #159
      00FF1984H   LINE      CODE     ---       #161
      00FF1999H   LINE      CODE     ---       #163
      00FF1999H   LINE      CODE     ---       #165
      00FF19A4H   LINE      CODE     ---       #166
      00FF19A5H   LINE      CODE     ---       #169
      00FF19A5H   LINE      CODE     ---       #171
      00FF19B0H   LINE      CODE     ---       #172
      00FF19B1H   LINE      CODE     ---       #175
      00FF19BDH   LINE      CODE     ---       #176
      00FF19C9H   LINE      CODE     ---       #178
      00FF19C9H   LINE      CODE     ---       #180
      00FF19D4H   LINE      CODE     ---       #183
      00FF19D5H   LINE      CODE     ---       #186
      00FF19E0H   LINE      CODE     ---       #187
      00FF19E0H   LINE      CODE     ---       #190
      ---         BLOCKEND  ---      ---       LVL=0
      R11         REGSYM    ---      BYTE      id
      R10         REGSYM    ---      BYTE      st

      00FF1CE2H   BLOCK     CODE     ---       LVL=0
      R1          REGSYM    ---      BYTE      id
      00FF1CE4H   BLOCK     CODE     NEAR LAB  LVL=1
      00000272H   SYMBOL    EDATA    ---       OutTimer
      ---         BLOCKEND  ---      ---       LVL=1
      00FF1CE2H   LINE      CODE     ---       #229
      00FF1CE4H   LINE      CODE     ---       #230
      00FF1CE4H   LINE      CODE     ---       #233
      00FF1CFDH   LINE      CODE     ---       #235
      00FF1D07H   LINE      CODE     ---       #236
      00FF1D10H   LINE      CODE     ---       #238
      00FF1D14H   LINE      CODE     ---       #239
      00FF1D16H   LINE      CODE     ---       #242
      00FF1D1EH   LINE      CODE     ---       #243
      00FF1D1EH   LINE      CODE     ---       #244
      ---         BLOCKEND  ---      ---       LVL=0

      00FF1F36H   BLOCK     CODE     ---       LVL=0
      00FF1F38H   BLOCK     CODE     NEAR LAB  LVL=1
      R15         REGSYM    ---      BYTE      i
      ---         BLOCKEND  ---      ---       LVL=1
      00FF1F36H   LINE      CODE     ---       #262
      00FF1F38H   LINE      CODE     ---       #263
      00FF1F38H   LINE      CODE     ---       #265
      00FF1F3AH   LINE      CODE     ---       #267
      00FF1F45H   LINE      CODE     ---       #269
      00FF1F4AH   LINE      CODE     ---       #270
      00FF1F4CH   LINE      CODE     ---       #273
      00FF1F53H   LINE      CODE     ---       #274
      00FF1F53H   LINE      CODE     ---       #275
      00FF1F5AH   LINE      CODE     ---       #289
      ---         BLOCKEND  ---      ---       LVL=0

      00FF20ABH   BLOCK     CODE     ---       LVL=0
L251 LINKER/LOCATER V4.66.93.0                                                        06/26/2024  16:41:43  PAGE 16


      00FF20ABH   LINE      CODE     ---       #291
      00FF20ABH   LINE      CODE     ---       #293
      00FF20AEH   LINE      CODE     ---       #294
      00FF20B1H   LINE      CODE     ---       #295
      00FF20B4H   LINE      CODE     ---       #296
      00FF20B7H   LINE      CODE     ---       #297
      00FF20BAH   LINE      CODE     ---       #298
      00FF20BDH   LINE      CODE     ---       #300
      00FF20C0H   LINE      CODE     ---       #301
      00FF20C3H   LINE      CODE     ---       #303
      00FF20C3H   LINE      CODE     ---       #306
      ---         BLOCKEND  ---      ---       LVL=0

      00FF2031H   BLOCK     CODE     ---       LVL=0
      00FF2031H   LINE      CODE     ---       #318
      00FF2031H   LINE      CODE     ---       #323
      00FF2034H   LINE      CODE     ---       #324
      00FF2037H   LINE      CODE     ---       #325
      00FF203AH   LINE      CODE     ---       #327
      00FF203DH   LINE      CODE     ---       #328
      00FF2040H   LINE      CODE     ---       #332
      00FF2043H   LINE      CODE     ---       #334
      00FF2046H   LINE      CODE     ---       #335
      00FF2049H   LINE      CODE     ---       #336
      00FF204CH   LINE      CODE     ---       #337
      00FF204FH   LINE      CODE     ---       #339
      ---         BLOCKEND  ---      ---       LVL=0

      00FF1799H   BLOCK     CODE     ---       LVL=0
      0000027EH   SYMBOL    EDATA    BYTE      PwrHis
      0000027FH   SYMBOL    EDATA    BYTE      StHis
      R11         REGSYM    ---      BYTE      s
      R11         REGSYM    ---      BYTE      key
      00FF1799H   LINE      CODE     ---       #343
      00FF1799H   LINE      CODE     ---       #344
      00FF1799H   LINE      CODE     ---       #351
      00FF179CH   LINE      CODE     ---       #352
      00FF179FH   LINE      CODE     ---       #354
      00FF17AAH   LINE      CODE     ---       #357
      00FF17B0H   LINE      CODE     ---       #358
      00FF17B0H   LINE      CODE     ---       #361
      00FF17B7H   LINE      CODE     ---       #362
      00FF17C0H   LINE      CODE     ---       #364
      00FF17C8H   LINE      CODE     ---       #365
      00FF17CAH   LINE      CODE     ---       #367
      00FF17CEH   LINE      CODE     ---       #369
      00FF17D4H   LINE      CODE     ---       #372
      00FF17DAH   LINE      CODE     ---       #373
      00FF17DCH   LINE      CODE     ---       #376
      00FF17DFH   LINE      CODE     ---       #377
      00FF17E5H   LINE      CODE     ---       #378
      00FF17EBH   LINE      CODE     ---       #379
      00FF17EBH   LINE      CODE     ---       #380
      00FF17EBH   LINE      CODE     ---       #396
      00FF17EFH   LINE      CODE     ---       #397
      00FF17EFH   LINE      CODE     ---       #401
      00FF17F6H   LINE      CODE     ---       #403
      00FF180AH   LINE      CODE     ---       #405
      00FF1810H   LINE      CODE     ---       #407
      00FF1813H   LINE      CODE     ---       #408
      00FF1813H   LINE      CODE     ---       #410
      ---         BLOCKEND  ---      ---       LVL=0

      00FF1D97H   BLOCK     CODE     ---       LVL=0
      00000280H   SYMBOL    EDATA    BYTE      key_pressed
L251 LINKER/LOCATER V4.66.93.0                                                        06/26/2024  16:41:43  PAGE 17


      00FF1D97H   LINE      CODE     ---       #412
      00FF1D97H   LINE      CODE     ---       #413
      00FF1D97H   LINE      CODE     ---       #417
      00FF1DA1H   LINE      CODE     ---       #419
      00FF1DA8H   LINE      CODE     ---       #421
      00FF1DAAH   LINE      CODE     ---       #422
      00FF1DAAH   LINE      CODE     ---       #424
      00FF1DB1H   LINE      CODE     ---       #425
      00FF1DBBH   LINE      CODE     ---       #427
      00FF1DC1H   LINE      CODE     ---       #428
      00FF1DC4H   LINE      CODE     ---       #429
      00FF1DC4H   LINE      CODE     ---       #433
      00FF1DC9H   LINE      CODE     ---       #434
      00FF1DC9H   LINE      CODE     ---       #436
      00FF1DCAH   LINE      CODE     ---       #437
      ---         BLOCKEND  ---      ---       LVL=0

      00FF1E8FH   BLOCK     CODE     ---       LVL=0
      00FF1E91H   BLOCK     CODE     NEAR LAB  LVL=1
      00000281H   SYMBOL    EDATA    BYTE      his
      R15         REGSYM    ---      BYTE      st
      ---         BLOCKEND  ---      ---       LVL=1
      00FF1E8FH   LINE      CODE     ---       #440
      00FF1E91H   LINE      CODE     ---       #441
      00FF1E91H   LINE      CODE     ---       #444
      00FF1E97H   LINE      CODE     ---       #448
      00FF1E9FH   LINE      CODE     ---       #450
      00FF1EA6H   LINE      CODE     ---       #454
      00FF1EAEH   LINE      CODE     ---       #456
      00FF1EB2H   LINE      CODE     ---       #457
      00FF1EB6H   LINE      CODE     ---       #458
      00FF1EB6H   LINE      CODE     ---       #461
      00FF1EB8H   LINE      CODE     ---       #462
      ---         BLOCKEND  ---      ---       LVL=0

      00FF1C55H   BLOCK     CODE     ---       LVL=0
      REG=3       REGSYM    ---      ---       pata
      0000021BH   SYMBOL    EDATA    BYTE      len
      00FF1C5DH   BLOCK     CODE     NEAR LAB  LVL=1
      0000021CH   SYMBOL    EDATA    BYTE      i
      ---         BLOCKEND  ---      ---       LVL=1
      00FF1C55H   LINE      CODE     ---       #464
      00FF1C5DH   LINE      CODE     ---       #465
      00FF1C5DH   LINE      CODE     ---       #466
      00FF1C5DH   LINE      CODE     ---       #467
      00FF1C60H   LINE      CODE     ---       #469
      00FF1C7EH   LINE      CODE     ---       #470
      00FF1C91H   LINE      CODE     ---       #471
      00FF1C9CH   LINE      CODE     ---       #472
      ---         BLOCKEND  ---      ---       LVL=0

      00FF0006H   BLOCK     CODE     ---       LVL=0
      00FF0006H   LINE      CODE     ---       #475
      00FF0006H   LINE      CODE     ---       #480
      ---         BLOCKEND  ---      ---       LVL=0

      00FF1BB6H   BLOCK     CODE     ---       LVL=0
      000001C1H   SYMBOL    EDATA    BYTE      PwOff
      00FF1BB6H   LINE      CODE     ---       #482
      00FF1BB6H   LINE      CODE     ---       #483
      00FF1BB6H   LINE      CODE     ---       #484
      00FF1BBCH   LINE      CODE     ---       #486
      00FF1BC6H   LINE      CODE     ---       #488
      00FF1BCCH   LINE      CODE     ---       #490
      00FF1BD1H   LINE      CODE     ---       #491
L251 LINKER/LOCATER V4.66.93.0                                                        06/26/2024  16:41:43  PAGE 18


      00FF1BD8H   LINE      CODE     ---       #492
      00FF1BDAH   LINE      CODE     ---       #493
      00FF1BDAH   LINE      CODE     ---       #495
      00FF1BE0H   LINE      CODE     ---       #497
      00FF1BE5H   LINE      CODE     ---       #498
      00FF1BEFH   LINE      CODE     ---       #499
      00FF1BF1H   LINE      CODE     ---       #500
      00FF1BF1H   LINE      CODE     ---       #502
      00FF1BF7H   LINE      CODE     ---       #504
      00FF1BFCH   LINE      CODE     ---       #505
      00FF1C09H   LINE      CODE     ---       #506
      00FF1C09H   LINE      CODE     ---       #508
      ---         BLOCKEND  ---      ---       LVL=0

      00FF171CH   BLOCK     CODE     ---       LVL=0
      00FF171CH   LINE      CODE     ---       #511
      00FF171CH   LINE      CODE     ---       #513
      00FF171FH   LINE      CODE     ---       #514
      00FF1722H   LINE      CODE     ---       #515
      00FF1725H   LINE      CODE     ---       #516
      00FF1728H   LINE      CODE     ---       #517
      00FF172BH   LINE      CODE     ---       #519
      00FF1732H   LINE      CODE     ---       #521
      00FF1735H   LINE      CODE     ---       #522
      00FF173CH   LINE      CODE     ---       #524
      00FF173FH   LINE      CODE     ---       #525
      00FF1746H   LINE      CODE     ---       #527
      00FF1749H   LINE      CODE     ---       #528
      00FF1750H   LINE      CODE     ---       #531
      00FF1757H   LINE      CODE     ---       #533
      00FF1767H   LINE      CODE     ---       #534
      00FF176EH   LINE      CODE     ---       #536
      00FF1771H   LINE      CODE     ---       #537
      00FF1773H   LINE      CODE     ---       #539
      00FF1776H   LINE      CODE     ---       #540
      00FF177DH   LINE      CODE     ---       #541
      00FF1784H   LINE      CODE     ---       #542
      00FF178BH   LINE      CODE     ---       #544
      00FF178BH   LINE      CODE     ---       #546
      00FF178EH   LINE      CODE     ---       #547
      00FF1791H   LINE      CODE     ---       #548
      00FF1794H   LINE      CODE     ---       #549
      00FF1797H   LINE      CODE     ---       #551
      ---         BLOCKEND  ---      ---       LVL=0

      ---         MODULE    ---      ---       uart
      00FF1AAAH   PUBLIC    CODE     ---       UART1_ISR
      00FF1A4AH   PUBLIC    CODE     ---       UART2_ISR
      00FF1C9FH   PUBLIC    CODE     ---       Uart1_Init
      00FF1D1FH   PUBLIC    CODE     ---       Uart2_Init
      00FF2050H   PUBLIC    CODE     ---       Uart1Send
      00FF206FH   PUBLIC    CODE     ---       Uart2Send
      00FF2011H   PUBLIC    CODE     ---       Uart1Hnd
      00FF000EH   PUBLIC    CODE     ---       putchar
      00000020H.0 PUBLIC    BIT      BIT       B_TX1_Busy
      00000020H.1 PUBLIC    BIT      BIT       B_TX2_Busy
      00000020H.2 PUBLIC    BIT      BIT       B_TX3_Busy
      00000020H.3 PUBLIC    BIT      BIT       B_TX4_Busy
      00000021H   PUBLIC    EDATA    ---       RX1_Buffer
      000000E9H   PUBLIC    EDATA    ---       RX4_Buffer
      000001B1H   PUBLIC    EDATA    WORD      Rx1_Timer
      000001B3H   PUBLIC    EDATA    WORD      Rx2_Timer
      000001B5H   PUBLIC    EDATA    WORD      Rx3_Timer
      000001B7H   PUBLIC    EDATA    BYTE      RX1_Cnt
      000001B8H   PUBLIC    EDATA    WORD      Rx4_Timer
L251 LINKER/LOCATER V4.66.93.0                                                        06/26/2024  16:41:43  PAGE 19


      000001BAH   PUBLIC    EDATA    BYTE      RX2_Cnt
      000001BBH   PUBLIC    EDATA    BYTE      RX3_Cnt
      000001BCH   PUBLIC    EDATA    BYTE      TX1_Cnt
      000001BDH   PUBLIC    EDATA    BYTE      RX4_Cnt
      000001BEH   PUBLIC    EDATA    BYTE      TX2_Cnt
      000001BFH   PUBLIC    EDATA    BYTE      TX3_Cnt
      000001C0H   PUBLIC    EDATA    BYTE      TX4_Cnt
      00010000H   PUBLIC    XDATA    ---       RX2_Buffer
      000100C8H   PUBLIC    XDATA    ---       RX3_Buffer
      00010190H   PUBLIC    XDATA    ---       g_UartData
      000000D0H   SFRSYM    DATA     BYTE      PSW
      0000009DH   SFRSYM    DATA     BYTE      IRCBAND
      00000097H   SFRSYM    DATA     BYTE      AUXR2
      0000009AH.4 SFRSYM    DATA     BIT       S2REN
      000000B7H.4 SFRSYM    DATA     BIT       PSH
      000000EFH   SFRSYM    DATA     BYTE      AUXINTIF
      000000FDH   SFRSYM    DATA     BYTE      S4CON
      000000ACH   SFRSYM    DATA     BYTE      S3CON
      0000009AH   SFRSYM    DATA     BYTE      S2CON
      00000098H.4 SFRSYM    DATA     BIT       REN
      0000009BH   SFRSYM    DATA     BYTE      S2BUF
      0000008EH.2 SFRSYM    DATA     BIT       T2x12
      000000B7H   SFRSYM    DATA     BYTE      IPH
      000000CDH   SFRSYM    DATA     BYTE      SPSTAT
      000000DDH   SFRSYM    DATA     BYTE      T4T3M
      0000008EH.4 SFRSYM    DATA     BIT       T2R
      000000C1H   SFRSYM    DATA     BYTE      WDT_CONTR
      00000088H.6 SFRSYM    DATA     BIT       TR1
      000000B5H.0 SFRSYM    DATA     BIT       PS2
      000000D7H   SFRSYM    DATA     BYTE      T2L
      0000008BH   SFRSYM    DATA     BYTE      TL1
      000000D6H   SFRSYM    DATA     BYTE      T2H
      0000008DH   SFRSYM    DATA     BYTE      TH1
      000000DFH   SFRSYM    DATA     BYTE      IP3
      000000F4H   SFRSYM    DATA     BYTE      USBCON
      000000AFH.2 SFRSYM    DATA     BIT       ET2
      000000B5H   SFRSYM    DATA     BYTE      IP2
      000000FFH   SFRSYM    DATA     BYTE      RSTCFG
      000000A8H.3 SFRSYM    DATA     BIT       ET1
      000000AFH.0 SFRSYM    DATA     BIT       ES2
      000000C7H   SFRSYM    DATA     BYTE      IAP_CONTR
      000000F9H   SFRSYM    DATA     BYTE      LINICR
      0000008EH   SFRSYM    DATA     BYTE      AUXR
      000000AFH   SFRSYM    DATA     BYTE      IE2
      00000088H   SFRSYM    DATA     BYTE      TCON
      00000089H   SFRSYM    DATA     BYTE      TMOD
      00000098H   SFRSYM    DATA     BYTE      SCON
      000000F1H   SFRSYM    DATA     BYTE      CANICR
      00000087H   SFRSYM    DATA     BYTE      PCON
      00000099H   SFRSYM    DATA     BYTE      SBUF
      000000BCH   SFRSYM    DATA     BYTE      ADC_CONTR
      000000E7H   SFRSYM    DATA     BYTE      CMPCR2
      000000E6H   SFRSYM    DATA     BYTE      CMPCR1
      0000009AH.1 SFRSYM    DATA     BIT       S2TI
      000000B8H.4 SFRSYM    DATA     BIT       PS
      0000009AH.0 SFRSYM    DATA     BIT       S2RI
      000000B6H.0 SFRSYM    DATA     BIT       PS2H
      00000098H.1 SFRSYM    DATA     BIT       TI
      00000098H.0 SFRSYM    DATA     BIT       RI
      000000DEH   SFRSYM    DATA     BYTE      ADCCFG
      000000B8H   SFRSYM    DATA     BYTE      IP
      000000A8H.4 SFRSYM    DATA     BIT       ES
      0000008FH   SFRSYM    DATA     BYTE      INTCLKO
      000000EEH   SFRSYM    DATA     BYTE      IP3H
      000000B6H   SFRSYM    DATA     BYTE      IP2H
L251 LINKER/LOCATER V4.66.93.0                                                        06/26/2024  16:41:43  PAGE 20


      000000A8H   SFRSYM    DATA     BYTE      IE
      000000BBH   SFRSYM    DATA     BYTE      P_SW3
      000000BAH   SFRSYM    DATA     BYTE      P_SW2
      000000A2H   SFRSYM    DATA     BYTE      P_SW1
      000000CEH   SFRSYM    DATA     BYTE      SPCTL
      000000F8H   SFRSYM    DATA     BYTE      P7
      000000E8H   SFRSYM    DATA     BYTE      P6
      000000C8H   SFRSYM    DATA     BYTE      P5
      000000C0H   SFRSYM    DATA     BYTE      P4
      000000B0H   SFRSYM    DATA     BYTE      P3
      000000A0H   SFRSYM    DATA     BYTE      P2
      00000090H   SFRSYM    DATA     BYTE      P1
      00000080H   SFRSYM    DATA     BYTE      P0

      00FF1C9FH   BLOCK     CODE     ---       LVL=0
      00FF1C9FH   LINE      CODE     ---       #36
      00FF1C9FH   LINE      CODE     ---       #39
      00FF1CA1H   LINE      CODE     ---       #40
      00FF1CA4H   LINE      CODE     ---       #41
      00FF1CA7H   LINE      CODE     ---       #42
      00FF1CAAH   LINE      CODE     ---       #43
      00FF1CADH   LINE      CODE     ---       #44
      00FF1CB0H   LINE      CODE     ---       #45
      00FF1CB3H   LINE      CODE     ---       #46
      00FF1CB5H   LINE      CODE     ---       #47
      00FF1CB8H   LINE      CODE     ---       #48
      00FF1CBAH   LINE      CODE     ---       #54
      00FF1CC2H   LINE      CODE     ---       #56
      00FF1CC4H   LINE      CODE     ---       #57
      00FF1CC7H   LINE      CODE     ---       #59
      00FF1CC9H   LINE      CODE     ---       #60
      00FF1CCBH   LINE      CODE     ---       #64
      00FF1CCEH   LINE      CODE     ---       #65
      00FF1CD1H   LINE      CODE     ---       #67
      00FF1CD3H   LINE      CODE     ---       #68
      00FF1CDBH   LINE      CODE     ---       #69
      00FF1CE1H   LINE      CODE     ---       #72
      ---         BLOCKEND  ---      ---       LVL=0

      00FF1D1FH   BLOCK     CODE     ---       LVL=0
      00FF1D1FH   LINE      CODE     ---       #74
      00FF1D1FH   LINE      CODE     ---       #76
      00FF1D22H   LINE      CODE     ---       #77
      00FF1D25H   LINE      CODE     ---       #78
      00FF1D28H   LINE      CODE     ---       #79
      00FF1D2BH   LINE      CODE     ---       #80
      00FF1D2EH   LINE      CODE     ---       #81
      00FF1D31H   LINE      CODE     ---       #82
      00FF1D34H   LINE      CODE     ---       #84
      00FF1D3CH   LINE      CODE     ---       #86
      00FF1D3FH   LINE      CODE     ---       #87
      00FF1D42H   LINE      CODE     ---       #89
      00FF1D45H   LINE      CODE     ---       #90
      00FF1D48H   LINE      CODE     ---       #91
      00FF1D4BH   LINE      CODE     ---       #93
      00FF1D4DH   LINE      CODE     ---       #94
      00FF1D55H   LINE      CODE     ---       #95
      00FF1D5BH   LINE      CODE     ---       #97
      ---         BLOCKEND  ---      ---       LVL=0

      00FF000EH   BLOCK     CODE     ---       LVL=0
      R10         REGSYM    ---      CHAR      c
      00FF000EH   LINE      CODE     ---       #100
      00FF0010H   LINE      CODE     ---       #102
      00FF0013H   LINE      CODE     ---       #103
L251 LINKER/LOCATER V4.66.93.0                                                        06/26/2024  16:41:43  PAGE 21


      00FF0016H   LINE      CODE     ---       #104
      00FF0018H   LINE      CODE     ---       #105
      00FF001AH   LINE      CODE     ---       #106
      ---         BLOCKEND  ---      ---       LVL=0

      00FF1AAAH   BLOCK     CODE     ---       LVL=0
      00FF1AAAH   LINE      CODE     ---       #109
      00FF1AB6H   LINE      CODE     ---       #111
      00FF1AB9H   LINE      CODE     ---       #113
      00FF1ABBH   LINE      CODE     ---       #114
      00FF1AD0H   LINE      CODE     ---       #115
      00FF1ADCH   LINE      CODE     ---       #117
      00FF1AEAH   LINE      CODE     ---       #119
      00FF1AF2H   LINE      CODE     ---       #120
      00FF1AF2H   LINE      CODE     ---       #123
      00FF1AF5H   LINE      CODE     ---       #125
      00FF1AF7H   LINE      CODE     ---       #126
      00FF1AF9H   LINE      CODE     ---       #127
      ---         BLOCKEND  ---      ---       LVL=0

      00FF1A4AH   BLOCK     CODE     ---       LVL=0
      00FF1A4AH   LINE      CODE     ---       #132
      00FF1A56H   LINE      CODE     ---       #134
      00FF1A5AH   LINE      CODE     ---       #136
      00FF1A5DH   LINE      CODE     ---       #137
      00FF1A72H   LINE      CODE     ---       #138
      00FF1A7EH   LINE      CODE     ---       #140
      00FF1A8CH   LINE      CODE     ---       #142
      00FF1A94H   LINE      CODE     ---       #143
      00FF1A94H   LINE      CODE     ---       #146
      00FF1A98H   LINE      CODE     ---       #148
      00FF1A9BH   LINE      CODE     ---       #149
      00FF1A9DH   LINE      CODE     ---       #150
      ---         BLOCKEND  ---      ---       LVL=0
      R11         REGSYM    ---      CHAR      dat
      REG=3       REGSYM    ---      ---       s

      00FF2050H   BLOCK     CODE     ---       LVL=0
      REG=7       REGSYM    ---      ---       buf
      R10         REGSYM    ---      BYTE      len
      00FF2054H   BLOCK     CODE     NEAR LAB  LVL=1
      R7          REGSYM    ---      BYTE      i
      ---         BLOCKEND  ---      ---       LVL=1
      00FF2050H   LINE      CODE     ---       #174
      00FF2054H   LINE      CODE     ---       #175
      00FF2054H   LINE      CODE     ---       #177
      00FF2058H   LINE      CODE     ---       #179
      00FF2063H   LINE      CODE     ---       #180
      00FF2065H   LINE      CODE     ---       #181
      00FF2068H   LINE      CODE     ---       #182
      00FF206EH   LINE      CODE     ---       #183
      ---         BLOCKEND  ---      ---       LVL=0

      00FF206FH   BLOCK     CODE     ---       LVL=0
      REG=7       REGSYM    ---      ---       buf
      R10         REGSYM    ---      BYTE      len
      00FF2073H   BLOCK     CODE     NEAR LAB  LVL=1
      R7          REGSYM    ---      BYTE      i
      ---         BLOCKEND  ---      ---       LVL=1
      00FF206FH   LINE      CODE     ---       #185
      00FF2073H   LINE      CODE     ---       #186
      00FF2073H   LINE      CODE     ---       #188
      00FF2077H   LINE      CODE     ---       #190
      00FF2082H   LINE      CODE     ---       #191
      00FF2084H   LINE      CODE     ---       #192
L251 LINKER/LOCATER V4.66.93.0                                                        06/26/2024  16:41:43  PAGE 22


      00FF2087H   LINE      CODE     ---       #193
      00FF208DH   LINE      CODE     ---       #194
      ---         BLOCKEND  ---      ---       LVL=0

      00FF2011H   BLOCK     CODE     ---       LVL=0
      00FF2011H   LINE      CODE     ---       #226
      00FF2011H   LINE      CODE     ---       #228
      00FF2021H   LINE      CODE     ---       #232
      00FF202DH   LINE      CODE     ---       #234
      00FF2030H   LINE      CODE     ---       #236
      ---         BLOCKEND  ---      ---       LVL=0

      ---         MODULE    ---      ---       time
      00FF13D3H   PUBLIC    CODE     ---       TimerTask
      00FF210AH   PUBLIC    CODE     ---       Timer0ISR
      00FF211DH   PUBLIC    CODE     ---       Timer1ISR
      00FF2130H   PUBLIC    CODE     ---       Timer0_Init
      00FF20DFH   PUBLIC    CODE     ---       delay_ms
      00FF2161H   PUBLIC    CODE     ---       delay_us
      00000008H   PUBLIC    EDATA    WORD      Time1s
      0000000AH   PUBLIC    EDATA    WORD      Timer0Cnt
      0000000CH   PUBLIC    EDATA    WORD      Timer1Cnt
      000000D0H   SFRSYM    DATA     BYTE      PSW
      0000009DH   SFRSYM    DATA     BYTE      IRCBAND
      00000097H   SFRSYM    DATA     BYTE      AUXR2
      000000EFH   SFRSYM    DATA     BYTE      AUXINTIF
      000000FDH   SFRSYM    DATA     BYTE      S4CON
      000000ACH   SFRSYM    DATA     BYTE      S3CON
      0000009AH   SFRSYM    DATA     BYTE      S2CON
      000000B7H   SFRSYM    DATA     BYTE      IPH
      000000CDH   SFRSYM    DATA     BYTE      SPSTAT
      000000DDH   SFRSYM    DATA     BYTE      T4T3M
      000000C1H   SFRSYM    DATA     BYTE      WDT_CONTR
      00000088H.6 SFRSYM    DATA     BIT       TR1
      00000088H.4 SFRSYM    DATA     BIT       TR0
      000000B8H.1 SFRSYM    DATA     BIT       PT0
      0000008BH   SFRSYM    DATA     BYTE      TL1
      0000008AH   SFRSYM    DATA     BYTE      TL0
      0000008DH   SFRSYM    DATA     BYTE      TH1
      0000008CH   SFRSYM    DATA     BYTE      TH0
      000000DFH   SFRSYM    DATA     BYTE      IP3
      000000F4H   SFRSYM    DATA     BYTE      USBCON
      000000B5H   SFRSYM    DATA     BYTE      IP2
      000000FFH   SFRSYM    DATA     BYTE      RSTCFG
      000000A8H.1 SFRSYM    DATA     BIT       ET0
      000000C7H   SFRSYM    DATA     BYTE      IAP_CONTR
      000000F9H   SFRSYM    DATA     BYTE      LINICR
      0000008EH   SFRSYM    DATA     BYTE      AUXR
      000000AFH   SFRSYM    DATA     BYTE      IE2
      00000088H   SFRSYM    DATA     BYTE      TCON
      00000089H   SFRSYM    DATA     BYTE      TMOD
      00000098H   SFRSYM    DATA     BYTE      SCON
      000000C1H.4 SFRSYM    DATA     BIT       CLR_WDT
      000000F1H   SFRSYM    DATA     BYTE      CANICR
      00000087H   SFRSYM    DATA     BYTE      PCON
      000000BCH   SFRSYM    DATA     BYTE      ADC_CONTR
      000000E7H   SFRSYM    DATA     BYTE      CMPCR2
      000000E6H   SFRSYM    DATA     BYTE      CMPCR1
      000000B7H.1 SFRSYM    DATA     BIT       PT0H
      000000DEH   SFRSYM    DATA     BYTE      ADCCFG
      000000B8H   SFRSYM    DATA     BYTE      IP
      0000008FH   SFRSYM    DATA     BYTE      INTCLKO
      000000EEH   SFRSYM    DATA     BYTE      IP3H
      000000B6H   SFRSYM    DATA     BYTE      IP2H
      000000A8H   SFRSYM    DATA     BYTE      IE
L251 LINKER/LOCATER V4.66.93.0                                                        06/26/2024  16:41:43  PAGE 23


      000000BBH   SFRSYM    DATA     BYTE      P_SW3
      000000BAH   SFRSYM    DATA     BYTE      P_SW2
      000000A2H   SFRSYM    DATA     BYTE      P_SW1
      000000CEH   SFRSYM    DATA     BYTE      SPCTL
      000000F8H   SFRSYM    DATA     BYTE      P7
      000000E8H   SFRSYM    DATA     BYTE      P6
      000000C8H   SFRSYM    DATA     BYTE      P5
      000000C0H   SFRSYM    DATA     BYTE      P4
      000000B0H   SFRSYM    DATA     BYTE      P3
      000000A0H   SFRSYM    DATA     BYTE      P2
      00000090H   SFRSYM    DATA     BYTE      P1
      00000080H   SFRSYM    DATA     BYTE      P0

      00FF2130H   BLOCK     CODE     ---       LVL=0
      00FF2130H   LINE      CODE     ---       #9
      00FF2130H   LINE      CODE     ---       #11
      00FF2133H   LINE      CODE     ---       #12
      00FF2136H   LINE      CODE     ---       #13
      00FF2139H   LINE      CODE     ---       #14
      00FF213BH   LINE      CODE     ---       #15
      00FF213DH   LINE      CODE     ---       #18
      00FF213FH   LINE      CODE     ---       #19
      00FF2142H   LINE      CODE     ---       #22
      ---         BLOCKEND  ---      ---       LVL=0

      00FF210AH   BLOCK     CODE     ---       LVL=0
      00FF210AH   LINE      CODE     ---       #25
      00FF210EH   LINE      CODE     ---       #27
      00FF2118H   LINE      CODE     ---       #28
      ---         BLOCKEND  ---      ---       LVL=0

      00FF211DH   BLOCK     CODE     ---       LVL=0
      00FF211DH   LINE      CODE     ---       #45
      00FF2121H   LINE      CODE     ---       #47
      00FF212BH   LINE      CODE     ---       #48
      ---         BLOCKEND  ---      ---       LVL=0

      00FF2161H   BLOCK     CODE     ---       LVL=0
      R7          REGSYM    ---      BYTE      us
      00FF2161H   LINE      CODE     ---       #50
      00FF2163H   LINE      CODE     ---       #52
      00FF2163H   LINE      CODE     ---       #55
      00FF216BH   LINE      CODE     ---       #56
      ---         BLOCKEND  ---      ---       LVL=0

      00FF20DFH   BLOCK     CODE     ---       LVL=0
      WR4         REGSYM    ---      WORD      ms
      00FF20E1H   BLOCK     CODE     NEAR LAB  LVL=1
      WR6         REGSYM    ---      WORD      i
      ---         BLOCKEND  ---      ---       LVL=1
      00FF20DFH   LINE      CODE     ---       #58
      00FF20E1H   LINE      CODE     ---       #59
      00FF20E1H   LINE      CODE     ---       #61
      00FF20E1H   LINE      CODE     ---       #62
      00FF20E5H   LINE      CODE     ---       #63
      00FF20EDH   LINE      CODE     ---       #64
      00FF20F5H   LINE      CODE     ---       #65
      ---         BLOCKEND  ---      ---       LVL=0
      WR6         REGSYM    ---      WORD      ms

      00FF13D3H   BLOCK     CODE     ---       LVL=0
      00FF13D5H   BLOCK     CODE     NEAR LAB  LVL=1
      WR14        REGSYM    ---      WORD      delta
      0000000EH   SYMBOL    EDATA    WORD      Time1s
      R5          REGSYM    ---      BYTE      i
L251 LINKER/LOCATER V4.66.93.0                                                        06/26/2024  16:41:43  PAGE 24


      ---         BLOCKEND  ---      ---       LVL=1
      00FF13D3H   LINE      CODE     ---       #76
      00FF13D5H   LINE      CODE     ---       #77
      00FF13D5H   LINE      CODE     ---       #78
      00FF13D7H   LINE      CODE     ---       #81
      00FF13E2H   LINE      CODE     ---       #83
      00FF13E8H   LINE      CODE     ---       #84
      00FF13ECH   LINE      CODE     ---       #86
      00FF13F5H   LINE      CODE     ---       #88
      00FF13FFH   LINE      CODE     ---       #89
      00FF13FFH   LINE      CODE     ---       #90
      00FF1408H   LINE      CODE     ---       #92
      00FF1412H   LINE      CODE     ---       #93
      00FF1412H   LINE      CODE     ---       #95
      00FF1420H   LINE      CODE     ---       #97
      00FF142AH   LINE      CODE     ---       #99
      00FF1434H   LINE      CODE     ---       #100
      00FF1434H   LINE      CODE     ---       #102
      00FF1436H   LINE      CODE     ---       #104
      00FF1453H   LINE      CODE     ---       #106
      00FF1477H   LINE      CODE     ---       #107
      00FF147DH   LINE      CODE     ---       #110
      00FF1487H   LINE      CODE     ---       #111
      00FF148DH   LINE      CODE     ---       #113
      00FF1490H   LINE      CODE     ---       #114
      00FF1494H   LINE      CODE     ---       #115
      00FF1497H   LINE      CODE     ---       #116
      00FF1497H   LINE      CODE     ---       #117
      00FF14A1H   LINE      CODE     ---       #119
      00FF14A6H   LINE      CODE     ---       #120
      00FF14A9H   LINE      CODE     ---       #121
      ---         BLOCKEND  ---      ---       LVL=0

      ---         MODULE    ---      ---       i2c
      00000013H   PUBLIC    EDATA    BYTE      P2DIR
      000000D0H   SFRSYM    DATA     BYTE      PSW
      0000009DH   SFRSYM    DATA     BYTE      IRCBAND
      00000097H   SFRSYM    DATA     BYTE      AUXR2
      000000EFH   SFRSYM    DATA     BYTE      AUXINTIF
      000000FDH   SFRSYM    DATA     BYTE      S4CON
      000000ACH   SFRSYM    DATA     BYTE      S3CON
      0000009AH   SFRSYM    DATA     BYTE      S2CON
      000000B7H   SFRSYM    DATA     BYTE      IPH
      000000CDH   SFRSYM    DATA     BYTE      SPSTAT
      000000DDH   SFRSYM    DATA     BYTE      T4T3M
      000000C1H   SFRSYM    DATA     BYTE      WDT_CONTR
      000000DFH   SFRSYM    DATA     BYTE      IP3
      000000F4H   SFRSYM    DATA     BYTE      USBCON
      000000B5H   SFRSYM    DATA     BYTE      IP2
      000000FFH   SFRSYM    DATA     BYTE      RSTCFG
      000000C7H   SFRSYM    DATA     BYTE      IAP_CONTR
      000000F9H   SFRSYM    DATA     BYTE      LINICR
      0000008EH   SFRSYM    DATA     BYTE      AUXR
      000000AFH   SFRSYM    DATA     BYTE      IE2
      00000088H   SFRSYM    DATA     BYTE      TCON
      00000089H   SFRSYM    DATA     BYTE      TMOD
      00000098H   SFRSYM    DATA     BYTE      SCON
      000000F1H   SFRSYM    DATA     BYTE      CANICR
      00000087H   SFRSYM    DATA     BYTE      PCON
      000000BCH   SFRSYM    DATA     BYTE      ADC_CONTR
      000000E7H   SFRSYM    DATA     BYTE      CMPCR2
      000000E6H   SFRSYM    DATA     BYTE      CMPCR1
      000000DEH   SFRSYM    DATA     BYTE      ADCCFG
      000000B8H   SFRSYM    DATA     BYTE      IP
      0000008FH   SFRSYM    DATA     BYTE      INTCLKO
L251 LINKER/LOCATER V4.66.93.0                                                        06/26/2024  16:41:43  PAGE 25


      000000EEH   SFRSYM    DATA     BYTE      IP3H
      000000B6H   SFRSYM    DATA     BYTE      IP2H
      000000A8H   SFRSYM    DATA     BYTE      IE
      000000BBH   SFRSYM    DATA     BYTE      P_SW3
      000000BAH   SFRSYM    DATA     BYTE      P_SW2
      000000A2H   SFRSYM    DATA     BYTE      P_SW1
      000000CEH   SFRSYM    DATA     BYTE      SPCTL
      000000F8H   SFRSYM    DATA     BYTE      P7
      000000E8H   SFRSYM    DATA     BYTE      P6
      000000C8H   SFRSYM    DATA     BYTE      P5
      000000C0H   SFRSYM    DATA     BYTE      P4
      000000B0H   SFRSYM    DATA     BYTE      P3
      000000A0H   SFRSYM    DATA     BYTE      P2
      00000090H   SFRSYM    DATA     BYTE      P1
      00000080H   SFRSYM    DATA     BYTE      P0

      ---         MODULE    ---      ---       mcp4725
      00FF0E55H   PUBLIC    CODE     ---       MCP4725_OutVol
      000000D0H   SFRSYM    DATA     BYTE      PSW
      0000009DH   SFRSYM    DATA     BYTE      IRCBAND
      00000097H   SFRSYM    DATA     BYTE      AUXR2
      000000EFH   SFRSYM    DATA     BYTE      AUXINTIF
      000000FDH   SFRSYM    DATA     BYTE      S4CON
      000000ACH   SFRSYM    DATA     BYTE      S3CON
      0000009AH   SFRSYM    DATA     BYTE      S2CON
      000000B7H   SFRSYM    DATA     BYTE      IPH
      000000CDH   SFRSYM    DATA     BYTE      SPSTAT
      000000DDH   SFRSYM    DATA     BYTE      T4T3M
      000000C1H   SFRSYM    DATA     BYTE      WDT_CONTR
      000000DFH   SFRSYM    DATA     BYTE      IP3
      000000F4H   SFRSYM    DATA     BYTE      USBCON
      000000B5H   SFRSYM    DATA     BYTE      IP2
      000000FFH   SFRSYM    DATA     BYTE      RSTCFG
      000000C7H   SFRSYM    DATA     BYTE      IAP_CONTR
      000000F9H   SFRSYM    DATA     BYTE      LINICR
      0000008EH   SFRSYM    DATA     BYTE      AUXR
      000000AFH   SFRSYM    DATA     BYTE      IE2
      00000088H   SFRSYM    DATA     BYTE      TCON
      00000089H   SFRSYM    DATA     BYTE      TMOD
      00000098H   SFRSYM    DATA     BYTE      SCON
      000000F1H   SFRSYM    DATA     BYTE      CANICR
      00000087H   SFRSYM    DATA     BYTE      PCON
      000000BCH   SFRSYM    DATA     BYTE      ADC_CONTR
      000000E7H   SFRSYM    DATA     BYTE      CMPCR2
      000000E6H   SFRSYM    DATA     BYTE      CMPCR1
      000000DEH   SFRSYM    DATA     BYTE      ADCCFG
      000000B8H   SFRSYM    DATA     BYTE      IP
      0000008FH   SFRSYM    DATA     BYTE      INTCLKO
      000000EEH   SFRSYM    DATA     BYTE      IP3H
      000000B6H   SFRSYM    DATA     BYTE      IP2H
      000000A8H   SFRSYM    DATA     BYTE      IE
      000000BBH   SFRSYM    DATA     BYTE      P_SW3
      000000BAH   SFRSYM    DATA     BYTE      P_SW2
      000000A2H   SFRSYM    DATA     BYTE      P_SW1
      000000CEH   SFRSYM    DATA     BYTE      SPCTL
      000000F8H   SFRSYM    DATA     BYTE      P7
      000000E8H   SFRSYM    DATA     BYTE      P6
      000000C8H   SFRSYM    DATA     BYTE      P5
      000000C0H   SFRSYM    DATA     BYTE      P4
      000000B0H   SFRSYM    DATA     BYTE      P3
      000000A0H   SFRSYM    DATA     BYTE      P2
      000000B1H   SFRSYM    DATA     BYTE      P3M1
      00000090H   SFRSYM    DATA     BYTE      P1
      000000B2H   SFRSYM    DATA     BYTE      P3M0
      00000080H   SFRSYM    DATA     BYTE      P0
L251 LINKER/LOCATER V4.66.93.0                                                        06/26/2024  16:41:43  PAGE 26



      00FF0E55H   BLOCK     CODE     ---       LVL=0
      R15         REGSYM    ---      BYTE      addr
      WR6         REGSYM    ---      WORD      voltage
      00FF0E59H   BLOCK     CODE     NEAR LAB  LVL=1
      000001C6H   SYMBOL    EDATA    DWORD     uiVolTemp
      R14         REGSYM    ---      BYTE      out_data
      00FF0EA9H   BLOCK     CODE     NEAR LAB  LVL=2
      R15         REGSYM    ---      BYTE      cnt
      ---         BLOCKEND  ---      ---       LVL=2
      00FF0EEDH   BLOCK     CODE     NEAR LAB  LVL=2
      WR12        REGSYM    ---      WORD      i
      R15         REGSYM    ---      BYTE      d
      ---         BLOCKEND  ---      ---       LVL=2
      00FF0F29H   BLOCK     CODE     NEAR LAB  LVL=2
      R15         REGSYM    ---      BYTE      cnt
      ---         BLOCKEND  ---      ---       LVL=2
      00FF0F6DH   BLOCK     CODE     NEAR LAB  LVL=2
      WR12        REGSYM    ---      WORD      i
      R15         REGSYM    ---      BYTE      d
      ---         BLOCKEND  ---      ---       LVL=2
      00FF0FA6H   BLOCK     CODE     NEAR LAB  LVL=2
      R15         REGSYM    ---      BYTE      cnt
      ---         BLOCKEND  ---      ---       LVL=2
      00FF0FEAH   BLOCK     CODE     NEAR LAB  LVL=2
      WR14        REGSYM    ---      WORD      i
      R13         REGSYM    ---      BYTE      d
      ---         BLOCKEND  ---      ---       LVL=2
      ---         BLOCKEND  ---      ---       LVL=1
      00FF0E55H   LINE      CODE     ---       #14
      00FF0E59H   LINE      CODE     ---       #15
      00FF0E59H   LINE      CODE     ---       #17
      00FF0E59H   LINE      CODE     ---       #18
      00FF0E62H   LINE      CODE     ---       #21
      00FF0E62H   LINE      CODE     ---       #22
      00FF0E62H   LINE      CODE     ---       #24
      00FF0E68H   LINE      CODE     ---       #27
      00FF0E7AH   LINE      CODE     ---       #28
      00FF0EA5H   LINE      CODE     ---       #29
      00FF0EA9H   LINE      CODE     ---       #30
      00FF0EEDH   LINE      CODE     ---       #31
      00FF0F20H   LINE      CODE     ---       #32
      00FF0F29H   LINE      CODE     ---       #33
      00FF0F6DH   LINE      CODE     ---       #34
      00FF0FA0H   LINE      CODE     ---       #35
      00FF0FA6H   LINE      CODE     ---       #36
      00FF0FEAH   LINE      CODE     ---       #37
      00FF101DH   LINE      CODE     ---       #38
      00FF1045H   LINE      CODE     ---       #40
      ---         BLOCKEND  ---      ---       LVL=0

      ---         MODULE    ---      ---       ads1110
      000000D0H   SFRSYM    DATA     BYTE      PSW
      0000009DH   SFRSYM    DATA     BYTE      IRCBAND
      00000097H   SFRSYM    DATA     BYTE      AUXR2
      000000EFH   SFRSYM    DATA     BYTE      AUXINTIF
      000000FDH   SFRSYM    DATA     BYTE      S4CON
      000000ACH   SFRSYM    DATA     BYTE      S3CON
      0000009AH   SFRSYM    DATA     BYTE      S2CON
      000000B7H   SFRSYM    DATA     BYTE      IPH
      000000CDH   SFRSYM    DATA     BYTE      SPSTAT
      000000DDH   SFRSYM    DATA     BYTE      T4T3M
      000000C1H   SFRSYM    DATA     BYTE      WDT_CONTR
      000000DFH   SFRSYM    DATA     BYTE      IP3
      000000F4H   SFRSYM    DATA     BYTE      USBCON
L251 LINKER/LOCATER V4.66.93.0                                                        06/26/2024  16:41:43  PAGE 27


      000000B5H   SFRSYM    DATA     BYTE      IP2
      000000FFH   SFRSYM    DATA     BYTE      RSTCFG
      000000C7H   SFRSYM    DATA     BYTE      IAP_CONTR
      000000F9H   SFRSYM    DATA     BYTE      LINICR
      0000008EH   SFRSYM    DATA     BYTE      AUXR
      000000AFH   SFRSYM    DATA     BYTE      IE2
      00000088H   SFRSYM    DATA     BYTE      TCON
      00000089H   SFRSYM    DATA     BYTE      TMOD
      00000098H   SFRSYM    DATA     BYTE      SCON
      000000F1H   SFRSYM    DATA     BYTE      CANICR
      00000087H   SFRSYM    DATA     BYTE      PCON
      000000BCH   SFRSYM    DATA     BYTE      ADC_CONTR
      000000E7H   SFRSYM    DATA     BYTE      CMPCR2
      000000E6H   SFRSYM    DATA     BYTE      CMPCR1
      000000DEH   SFRSYM    DATA     BYTE      ADCCFG
      000000B8H   SFRSYM    DATA     BYTE      IP
      0000008FH   SFRSYM    DATA     BYTE      INTCLKO
      000000EEH   SFRSYM    DATA     BYTE      IP3H
      000000B6H   SFRSYM    DATA     BYTE      IP2H
      000000A8H   SFRSYM    DATA     BYTE      IE
      000000BBH   SFRSYM    DATA     BYTE      P_SW3
      000000BAH   SFRSYM    DATA     BYTE      P_SW2
      000000A2H   SFRSYM    DATA     BYTE      P_SW1
      000000CEH   SFRSYM    DATA     BYTE      SPCTL
      000000F8H   SFRSYM    DATA     BYTE      P7
      000000E8H   SFRSYM    DATA     BYTE      P6
      000000C8H   SFRSYM    DATA     BYTE      P5
      000000C0H   SFRSYM    DATA     BYTE      P4
      000000B0H   SFRSYM    DATA     BYTE      P3
      000000A0H   SFRSYM    DATA     BYTE      P2
      00000090H   SFRSYM    DATA     BYTE      P1
      00000080H   SFRSYM    DATA     BYTE      P0

      ---         MODULE    ---      ---       cmd
      00FF1F0EH   PUBLIC    CODE     ---       Out4_20ma
      00FF11E4H   PUBLIC    CODE     ---       WriteSensorParam
      00FF1F83H   PUBLIC    CODE     ---       CheckSum
      00FF1C0AH   PUBLIC    CODE     ---       ReadDoseRate
      00FF1E30H   PUBLIC    CODE     ---       SendSensorCmd
      00FF19E1H   PUBLIC    CODE     ---       WaitSensorAck
      00FF208EH   PUBLIC    CODE     ---       SoundCtl
      00FF1D5CH   PUBLIC    CODE     ---       LedCtl
      00FF1F5DH   PUBLIC    CODE     ---       HndPcFrame
      00FF0B87H   PUBLIC    CODE     ---       Read4_20ma
      00FF08AFH   PUBLIC    CODE     ---       ReadBatVol
      00FF1DFFH   PUBLIC    CODE     ---       ConnectSensor
      00FF1610H   PUBLIC    CODE     ---       DevVer
      00FF1DCBH   PUBLIC    CODE     ---       SendPcCmd
      00FF14ACH   PUBLIC    CODE     ---       ValidFrame
      00FF188DH   PUBLIC    CODE     ---       ReadAlarmParam
      00FF1048H   PUBLIC    CODE     ---       HndPcCmd
      00FF1B06H   PUBLIC    CODE     ---       FrameRevert
      00FF156BH   PUBLIC    CODE     ---       MakeFrame
      00FF12E6H   PUBLIC    CODE     ---       ReadSensorParam
      00FF1814H   PUBLIC    CODE     ---       WriteAlarmParam
      00FF1FEFH   PUBLIC    CODE     ---       ClearRecvData
      00FF1B5FH   PUBLIC    CODE     ---       ChannelAlmLightClt
      00000010H   PUBLIC    EDATA    BYTE      g_CrcFlag
      00000011H   PUBLIC    EDATA    WORD      g_CommIdleTime
      00000211H   PUBLIC    EDATA    BYTE      ?MakeFrame?BYTE
      000000D0H   SFRSYM    DATA     BYTE      PSW
      0000009DH   SFRSYM    DATA     BYTE      IRCBAND
      00000097H   SFRSYM    DATA     BYTE      AUXR2
      000000EFH   SFRSYM    DATA     BYTE      AUXINTIF
      000000FDH   SFRSYM    DATA     BYTE      S4CON
L251 LINKER/LOCATER V4.66.93.0                                                        06/26/2024  16:41:43  PAGE 28


      000000ACH   SFRSYM    DATA     BYTE      S3CON
      0000009AH   SFRSYM    DATA     BYTE      S2CON
      000000B7H   SFRSYM    DATA     BYTE      IPH
      000000CDH   SFRSYM    DATA     BYTE      SPSTAT
      000000DDH   SFRSYM    DATA     BYTE      T4T3M
      000000C1H   SFRSYM    DATA     BYTE      WDT_CONTR
      000000DFH   SFRSYM    DATA     BYTE      IP3
      000000F4H   SFRSYM    DATA     BYTE      USBCON
      000000B5H   SFRSYM    DATA     BYTE      IP2
      000000FFH   SFRSYM    DATA     BYTE      RSTCFG
      000000C7H   SFRSYM    DATA     BYTE      IAP_CONTR
      000000F9H   SFRSYM    DATA     BYTE      LINICR
      0000008EH   SFRSYM    DATA     BYTE      AUXR
      000000AFH   SFRSYM    DATA     BYTE      IE2
      00000088H   SFRSYM    DATA     BYTE      TCON
      00000089H   SFRSYM    DATA     BYTE      TMOD
      00000098H   SFRSYM    DATA     BYTE      SCON
      000000F1H   SFRSYM    DATA     BYTE      CANICR
      00000087H   SFRSYM    DATA     BYTE      PCON
      000000BCH   SFRSYM    DATA     BYTE      ADC_CONTR
      000000E7H   SFRSYM    DATA     BYTE      CMPCR2
      000000E6H   SFRSYM    DATA     BYTE      CMPCR1
      000000DEH   SFRSYM    DATA     BYTE      ADCCFG
      000000B8H   SFRSYM    DATA     BYTE      IP
      0000008FH   SFRSYM    DATA     BYTE      INTCLKO
      000000EEH   SFRSYM    DATA     BYTE      IP3H
      000000B6H   SFRSYM    DATA     BYTE      IP2H
      000000A8H   SFRSYM    DATA     BYTE      IE
      000000BBH   SFRSYM    DATA     BYTE      P_SW3
      000000BAH   SFRSYM    DATA     BYTE      P_SW2
      000000A2H   SFRSYM    DATA     BYTE      P_SW1
      000000CEH   SFRSYM    DATA     BYTE      SPCTL
      000000F8H   SFRSYM    DATA     BYTE      P7
      000000E8H   SFRSYM    DATA     BYTE      P6
      000000C8H   SFRSYM    DATA     BYTE      P5
      000000C0H   SFRSYM    DATA     BYTE      P4
      000000B0H   SFRSYM    DATA     BYTE      P3
      000000B3H   SFRSYM    DATA     BYTE      P4M1
      000000A0H   SFRSYM    DATA     BYTE      P2
      000000B4H   SFRSYM    DATA     BYTE      P4M0
      00000090H   SFRSYM    DATA     BYTE      P1
      00000080H   SFRSYM    DATA     BYTE      P0
      00FF229FH   SYMBOL    HCONST   ---       ?tpl?0001
      00FF22A2H   SYMBOL    HCONST   ---       ?tpl?0002
      00FF22A5H   SYMBOL    HCONST   ---       ?tpl?0003
      00FF22A8H   SYMBOL    HCONST   ---       ?tpl?0004
      00FF22ABH   SYMBOL    HCONST   ---       ?tpl?0005
      00FF22B0H   SYMBOL    HCONST   ---       ?tpl?0006
      00FF22B5H   SYMBOL    HCONST   ---       ?tpl?0007
      R7          REGSYM    ---      BYTE      t
      R7          REGSYM    ---      BYTE      t
      R6          REGSYM    ---      BYTE      t
      R10         REGSYM    ---      BYTE      i
      R7          REGSYM    ---      BYTE      j
      R7          REGSYM    ---      BYTE      t

      00FF1FEFH   BLOCK     CODE     ---       LVL=0
      REG=3       REGSYM    ---      ---       pUartData
      00FF1FEFH   LINE      CODE     ---       #99
      00FF1FF3H   LINE      CODE     ---       #101
      00FF1FFFH   LINE      CODE     ---       #102
      00FF2005H   LINE      CODE     ---       #103
      00FF200EH   LINE      CODE     ---       #104
      ---         BLOCKEND  ---      ---       LVL=0

L251 LINKER/LOCATER V4.66.93.0                                                        06/26/2024  16:41:43  PAGE 29


      00FF14ACH   BLOCK     CODE     ---       LVL=0
      REG=3       REGSYM    ---      ---       pUartData
      00FF14B0H   BLOCK     CODE     NEAR LAB  LVL=1
      R7          REGSYM    ---      BYTE      lcrc
      0000021BH   SYMBOL    EDATA    ---       tmp
      0000021EH   SYMBOL    EDATA    ---       tmp2
      00000221H   SYMBOL    EDATA    ---       FrmHead
      ---         BLOCKEND  ---      ---       LVL=1
      00FF14ACH   LINE      CODE     ---       #106
      00FF14B0H   LINE      CODE     ---       #107
      00FF14B0H   LINE      CODE     ---       #109
      00FF14DEH   LINE      CODE     ---       #110
      00FF14DEH   LINE      CODE     ---       #112
      00FF14F3H   LINE      CODE     ---       #114
      00FF14FCH   LINE      CODE     ---       #118
      00FF14FFH   LINE      CODE     ---       #119
      00FF14FFH   LINE      CODE     ---       #121
      00FF1514H   LINE      CODE     ---       #124
      00FF1517H   LINE      CODE     ---       #125
      00FF1517H   LINE      CODE     ---       #127
      00FF1521H   LINE      CODE     ---       #130
      00FF1524H   LINE      CODE     ---       #131
      00FF1524H   LINE      CODE     ---       #133
      00FF152DH   LINE      CODE     ---       #136
      00FF1542H   LINE      CODE     ---       #139
      00FF1563H   LINE      CODE     ---       #141
      00FF1566H   LINE      CODE     ---       #142
      00FF1566H   LINE      CODE     ---       #168
      00FF1568H   LINE      CODE     ---       #169
      ---         BLOCKEND  ---      ---       LVL=0

      00FF156BH   BLOCK     CODE     ---       LVL=0
      REG=3       REGSYM    ---      ---       pUartData
      R5          REGSYM    ---      BYTE      Addr
      R10         REGSYM    ---      BYTE      Cmd
      00000217H   SYMBOL    EDATA    ---       dat
      0000021BH   SYMBOL    EDATA    BYTE      length
      00FF1577H   BLOCK     CODE     NEAR LAB  LVL=1
      R7          REGSYM    ---      BYTE      lcrc
      0000021CH   SYMBOL    EDATA    ---       FrmHead
      ---         BLOCKEND  ---      ---       LVL=1
      00FF156BH   LINE      CODE     ---       #172
      00FF1577H   LINE      CODE     ---       #173
      00FF1577H   LINE      CODE     ---       #177
      00FF157DH   LINE      CODE     ---       #178
      00FF158BH   LINE      CODE     ---       #179
      00FF1590H   LINE      CODE     ---       #180
      00FF1594H   LINE      CODE     ---       #181
      00FF1598H   LINE      CODE     ---       #183
      00FF15ABH   LINE      CODE     ---       #184
      00FF15B4H   LINE      CODE     ---       #186
      00FF15C7H   LINE      CODE     ---       #187
      00FF15C7H   LINE      CODE     ---       #189
      00FF15D6H   LINE      CODE     ---       #193
      00FF15F3H   LINE      CODE     ---       #196
      00FF1603H   LINE      CODE     ---       #197
      00FF160DH   LINE      CODE     ---       #198
      ---         BLOCKEND  ---      ---       LVL=0

      00FF1DCBH   BLOCK     CODE     ---       LVL=0
      R6          REGSYM    ---      BYTE      Addr
      R7          REGSYM    ---      BYTE      Cmd
      REG=0       REGSYM    ---      ---       dat
      R10         REGSYM    ---      BYTE      length
      00FF1DCBH   LINE      CODE     ---       #201
L251 LINKER/LOCATER V4.66.93.0                                                        06/26/2024  16:41:43  PAGE 30


      00FF1DCFH   LINE      CODE     ---       #203
      00FF1DD4H   LINE      CODE     ---       #204
      00FF1DE7H   LINE      CODE     ---       #207
      00FF1DF8H   LINE      CODE     ---       #209
      00FF1DFEH   LINE      CODE     ---       #210
      ---         BLOCKEND  ---      ---       LVL=0

      00FF1E30H   BLOCK     CODE     ---       LVL=0
      R14         REGSYM    ---      BYTE      Addr
      R15         REGSYM    ---      BYTE      Cmd
      REG=0       REGSYM    ---      ---       Data
      R10         REGSYM    ---      BYTE      length
      00FF1E30H   LINE      CODE     ---       #212
      00FF1E36H   LINE      CODE     ---       #215
      00FF1E45H   LINE      CODE     ---       #217
      00FF1E56H   LINE      CODE     ---       #218
      00FF1E5DH   LINE      CODE     ---       #219
      ---         BLOCKEND  ---      ---       LVL=0

      00FF19E1H   BLOCK     CODE     ---       LVL=0
      R15         REGSYM    ---      BYTE      Cmd
      00FF19E5H   BLOCK     CODE     NEAR LAB  LVL=1
      00000217H   SYMBOL    EDATA    DWORD     to
      ---         BLOCKEND  ---      ---       LVL=1
      00FF19E1H   LINE      CODE     ---       #222
      00FF19E5H   LINE      CODE     ---       #223
      00FF19E5H   LINE      CODE     ---       #224
      00FF19EDH   LINE      CODE     ---       #225
      00FF19EFH   LINE      CODE     ---       #229
      00FF19FFH   LINE      CODE     ---       #231
      00FF1A05H   LINE      CODE     ---       #234
      00FF1A16H   LINE      CODE     ---       #239
      00FF1A23H   LINE      CODE     ---       #241
      00FF1A2BH   LINE      CODE     ---       #244
      00FF1A2FH   LINE      CODE     ---       #245
      00FF1A2FH   LINE      CODE     ---       #247
      00FF1A2FH   LINE      CODE     ---       #249
      00FF1A36H   LINE      CODE     ---       #252
      00FF1A46H   LINE      CODE     ---       #256
      00FF1A47H   LINE      CODE     ---       #257
      ---         BLOCKEND  ---      ---       LVL=0

      00FF1F5DH   BLOCK     CODE     ---       LVL=0
      00FF1F5FH   BLOCK     CODE     NEAR LAB  LVL=1
      R15         REGSYM    ---      BYTE      ret
      ---         BLOCKEND  ---      ---       LVL=1
      00FF1F5DH   LINE      CODE     ---       #261
      00FF1F5FH   LINE      CODE     ---       #262
      00FF1F5FH   LINE      CODE     ---       #263
      00FF1F61H   LINE      CODE     ---       #264
      00FF1F6EH   LINE      CODE     ---       #267
      00FF1F73H   LINE      CODE     ---       #268
      00FF1F73H   LINE      CODE     ---       #269
      00FF1F7EH   LINE      CODE     ---       #270
      00FF1F80H   LINE      CODE     ---       #271
      ---         BLOCKEND  ---      ---       LVL=0

      00FF1F0EH   BLOCK     CODE     ---       LVL=0
      R5          REGSYM    ---      BYTE      index
      R6          REGSYM    ---      BYTE      val
      00FF1F12H   BLOCK     CODE     NEAR LAB  LVL=1
      WR6         REGSYM    ---      WORD      v
      ---         BLOCKEND  ---      ---       LVL=1
      00FF1F0EH   LINE      CODE     ---       #274
      00FF1F12H   LINE      CODE     ---       #275
L251 LINKER/LOCATER V4.66.93.0                                                        06/26/2024  16:41:43  PAGE 31


      00FF1F12H   LINE      CODE     ---       #276
      00FF1F17H   LINE      CODE     ---       #278
      00FF1F1FH   LINE      CODE     ---       #280
      00FF1F23H   LINE      CODE     ---       #281
      00FF1F28H   LINE      CODE     ---       #284
      00FF1F28H   LINE      CODE     ---       #286
      00FF1F33H   LINE      CODE     ---       #287
      00FF1F35H   LINE      CODE     ---       #288
      ---         BLOCKEND  ---      ---       LVL=0

      00FF0B87H   BLOCK     CODE     ---       LVL=0
      00FF0B89H   BLOCK     CODE     NEAR LAB  LVL=1
      000001C6H   SYMBOL    EDATA    BYTE      ret
      WR6         REGSYM    ---      INT       Voltage
      00FF0B8EH   BLOCK     CODE     NEAR LAB  LVL=2
      R15         REGSYM    ---      BYTE      rd_data
      000001C7H   SYMBOL    EDATA    CHAR      ack
      000001C8H   SYMBOL    EDATA    ---       OutBuf
      00FF0BD4H   BLOCK     CODE     NEAR LAB  LVL=3
      R14         REGSYM    ---      BYTE      cnt
      ---         BLOCKEND  ---      ---       LVL=3
      00FF0C18H   BLOCK     CODE     NEAR LAB  LVL=3
      WR12        REGSYM    ---      WORD      i
      R14         REGSYM    ---      BYTE      d
      ---         BLOCKEND  ---      ---       LVL=3
      00FF0C52H   BLOCK     CODE     NEAR LAB  LVL=3
      R14         REGSYM    ---      BYTE      cnt
      R13         REGSYM    ---      BYTE      io_data
      ---         BLOCKEND  ---      ---       LVL=3
      00FF0CDEH   BLOCK     CODE     NEAR LAB  LVL=3
      R14         REGSYM    ---      BYTE      cnt
      R13         REGSYM    ---      BYTE      io_data
      ---         BLOCKEND  ---      ---       LVL=3
      00FF0D6BH   BLOCK     CODE     NEAR LAB  LVL=3
      R14         REGSYM    ---      BYTE      cnt
      R13         REGSYM    ---      BYTE      io_data
      ---         BLOCKEND  ---      ---       LVL=3
      ---         BLOCKEND  ---      ---       LVL=2
      ---         BLOCKEND  ---      ---       LVL=1
      00FF0B87H   LINE      CODE     ---       #291
      00FF0B89H   LINE      CODE     ---       #292
      00FF0B89H   LINE      CODE     ---       #293
      00FF0B8EH   LINE      CODE     ---       #294
      00FF0B8EH   LINE      CODE     ---       #295
      00FF0E37H   LINE      CODE     ---       #297
      00FF0E42H   LINE      CODE     ---       #298
      00FF0E50H   LINE      CODE     ---       #299
      00FF0E52H   LINE      CODE     ---       #300
      ---         BLOCKEND  ---      ---       LVL=0

      00FF08AFH   BLOCK     CODE     ---       LVL=0
      00FF08B1H   BLOCK     CODE     NEAR LAB  LVL=1
      000001C6H   SYMBOL    EDATA    ---       bi
      WR6         REGSYM    ---      INT       Voltage
      R15         REGSYM    ---      BYTE      rd_data
      000001C9H   SYMBOL    EDATA    CHAR      ack
      000001CAH   SYMBOL    EDATA    ---       OutBuf
      00FF08F8H   BLOCK     CODE     NEAR LAB  LVL=2
      R14         REGSYM    ---      BYTE      cnt
      ---         BLOCKEND  ---      ---       LVL=2
      00FF093CH   BLOCK     CODE     NEAR LAB  LVL=2
      WR12        REGSYM    ---      WORD      i
      R14         REGSYM    ---      BYTE      d
      ---         BLOCKEND  ---      ---       LVL=2
      00FF0976H   BLOCK     CODE     NEAR LAB  LVL=2
L251 LINKER/LOCATER V4.66.93.0                                                        06/26/2024  16:41:43  PAGE 32


      R14         REGSYM    ---      BYTE      cnt
      R13         REGSYM    ---      BYTE      io_data
      ---         BLOCKEND  ---      ---       LVL=2
      00FF0A02H   BLOCK     CODE     NEAR LAB  LVL=2
      R14         REGSYM    ---      BYTE      cnt
      R13         REGSYM    ---      BYTE      io_data
      ---         BLOCKEND  ---      ---       LVL=2
      00FF0A8FH   BLOCK     CODE     NEAR LAB  LVL=2
      R14         REGSYM    ---      BYTE      cnt
      R13         REGSYM    ---      BYTE      io_data
      ---         BLOCKEND  ---      ---       LVL=2
      ---         BLOCKEND  ---      ---       LVL=1
      00FF08AFH   LINE      CODE     ---       #303
      00FF08B1H   LINE      CODE     ---       #304
      00FF08B1H   LINE      CODE     ---       #306
      00FF08B1H   LINE      CODE     ---       #307
      00FF0B5BH   LINE      CODE     ---       #309
      00FF0B5FH   LINE      CODE     ---       #310
      00FF0B74H   LINE      CODE     ---       #311
      00FF0B82H   LINE      CODE     ---       #312
      00FF0B84H   LINE      CODE     ---       #313
      ---         BLOCKEND  ---      ---       LVL=0

      00FF1048H   BLOCK     CODE     ---       LVL=0
      R11         REGSYM    ---      BYTE      ret
      000001C1H   SYMBOL    EDATA    ---       FrmHead
      00FF1048H   LINE      CODE     ---       #316
      00FF1048H   LINE      CODE     ---       #317
      00FF1048H   LINE      CODE     ---       #318
      00FF1048H   LINE      CODE     ---       #320
      00FF105FH   LINE      CODE     ---       #321
      00FF117CH   LINE      CODE     ---       #324
      00FF1183H   LINE      CODE     ---       #325
      00FF118EH   LINE      CODE     ---       #326
      00FF119BH   LINE      CODE     ---       #327
      00FF119EH   LINE      CODE     ---       #328
      00FF11A5H   LINE      CODE     ---       #329
      00FF11A8H   LINE      CODE     ---       #330
      00FF11B3H   LINE      CODE     ---       #333
      00FF11BAH   LINE      CODE     ---       #334
      00FF11C1H   LINE      CODE     ---       #335
      00FF11C8H   LINE      CODE     ---       #336
      00FF11CFH   LINE      CODE     ---       #337
      00FF11D6H   LINE      CODE     ---       #338
      00FF11DDH   LINE      CODE     ---       #340
      00FF11E4H   LINE      CODE     ---       #341
      00FF11E4H   LINE      CODE     ---       #343
      00FF11E4H   LINE      CODE     ---       #344
      ---         BLOCKEND  ---      ---       LVL=0

      00FF1B06H   BLOCK     CODE     ---       LVL=0
      REG=3       REGSYM    ---      ---       fres
      00FF1B0AH   BLOCK     CODE     NEAR LAB  LVL=1
      000001C6H   SYMBOL    EDATA    BYTE      ret
      ---         BLOCKEND  ---      ---       LVL=1
      00FF1B06H   LINE      CODE     ---       #346
      00FF1B0AH   LINE      CODE     ---       #347
      00FF1B0AH   LINE      CODE     ---       #348
      00FF1B0FH   LINE      CODE     ---       #349
      00FF1B2BH   LINE      CODE     ---       #351
      00FF1B47H   LINE      CODE     ---       #352
      00FF1B4DH   LINE      CODE     ---       #353
      00FF1B4DH   LINE      CODE     ---       #354
      00FF1B58H   LINE      CODE     ---       #355
      00FF1B5CH   LINE      CODE     ---       #356
L251 LINKER/LOCATER V4.66.93.0                                                        06/26/2024  16:41:43  PAGE 33


      ---         BLOCKEND  ---      ---       LVL=0

      00FF1DFFH   BLOCK     CODE     ---       LVL=0
      R15         REGSYM    ---      BYTE      Addr
      00FF1E03H   BLOCK     CODE     NEAR LAB  LVL=1
      R14         REGSYM    ---      BYTE      ret
      ---         BLOCKEND  ---      ---       LVL=1
      00FF1DFFH   LINE      CODE     ---       #358
      00FF1E03H   LINE      CODE     ---       #359
      00FF1E03H   LINE      CODE     ---       #360
      00FF1E05H   LINE      CODE     ---       #361
      00FF1E11H   LINE      CODE     ---       #363
      00FF1E1DH   LINE      CODE     ---       #364
      00FF1E20H   LINE      CODE     ---       #365
      00FF1E20H   LINE      CODE     ---       #366
      00FF1E2BH   LINE      CODE     ---       #368
      00FF1E2DH   LINE      CODE     ---       #369
      ---         BLOCKEND  ---      ---       LVL=0

      00FF1C0AH   BLOCK     CODE     ---       LVL=0
      R15         REGSYM    ---      BYTE      Addr
      00FF1C0EH   BLOCK     CODE     NEAR LAB  LVL=1
      R14         REGSYM    ---      BYTE      ret
      000001C6H   SYMBOL    EDATA    ---       HostDose
      ---         BLOCKEND  ---      ---       LVL=1
      00FF1C0AH   LINE      CODE     ---       #371
      00FF1C0EH   LINE      CODE     ---       #372
      00FF1C0EH   LINE      CODE     ---       #373
      00FF1C10H   LINE      CODE     ---       #378
      00FF1C1CH   LINE      CODE     ---       #386
      00FF1C33H   LINE      CODE     ---       #387
      00FF1C42H   LINE      CODE     ---       #388
      00FF1C45H   LINE      CODE     ---       #389
      00FF1C45H   LINE      CODE     ---       #390
      00FF1C50H   LINE      CODE     ---       #391
      00FF1C52H   LINE      CODE     ---       #392
      ---         BLOCKEND  ---      ---       LVL=0

      00FF188DH   BLOCK     CODE     ---       LVL=0
      R15         REGSYM    ---      BYTE      Addr
      00FF1891H   BLOCK     CODE     NEAR LAB  LVL=1
      R14         REGSYM    ---      BYTE      ret
      000001C6H   SYMBOL    EDATA    ---       HostAlarm
      000001DEH   SYMBOL    EDATA    ---       SensorAlarm
      ---         BLOCKEND  ---      ---       LVL=1
      00FF188DH   LINE      CODE     ---       #394
      00FF1891H   LINE      CODE     ---       #395
      00FF1891H   LINE      CODE     ---       #396
      00FF1893H   LINE      CODE     ---       #401
      00FF189FH   LINE      CODE     ---       #403
      00FF18ABH   LINE      CODE     ---       #404
      00FF18C2H   LINE      CODE     ---       #405
      00FF18CAH   LINE      CODE     ---       #406
      00FF18D2H   LINE      CODE     ---       #407
      00FF18DAH   LINE      CODE     ---       #408
      00FF18E2H   LINE      CODE     ---       #409
      00FF18F1H   LINE      CODE     ---       #410
      00FF18F4H   LINE      CODE     ---       #411
      00FF18F4H   LINE      CODE     ---       #412
      00FF18FFH   LINE      CODE     ---       #413
      00FF1901H   LINE      CODE     ---       #414
      ---         BLOCKEND  ---      ---       LVL=0

      00FF1814H   BLOCK     CODE     ---       LVL=0
      R15         REGSYM    ---      BYTE      Addr
L251 LINKER/LOCATER V4.66.93.0                                                        06/26/2024  16:41:43  PAGE 34


      00FF1818H   BLOCK     CODE     NEAR LAB  LVL=1
      R14         REGSYM    ---      BYTE      ret
      000001C6H   SYMBOL    EDATA    ---       HostAlarm
      000001DEH   SYMBOL    EDATA    ---       SensorAlarm
      ---         BLOCKEND  ---      ---       LVL=1
      00FF1814H   LINE      CODE     ---       #417
      00FF1818H   LINE      CODE     ---       #418
      00FF1818H   LINE      CODE     ---       #419
      00FF181AH   LINE      CODE     ---       #424
      00FF1826H   LINE      CODE     ---       #425
      00FF183DH   LINE      CODE     ---       #427
      00FF1845H   LINE      CODE     ---       #428
      00FF184DH   LINE      CODE     ---       #429
      00FF1855H   LINE      CODE     ---       #430
      00FF185DH   LINE      CODE     ---       #432
      00FF186EH   LINE      CODE     ---       #434
      00FF187AH   LINE      CODE     ---       #435
      00FF187DH   LINE      CODE     ---       #436
      00FF187DH   LINE      CODE     ---       #437
      00FF1888H   LINE      CODE     ---       #439
      00FF188AH   LINE      CODE     ---       #440
      ---         BLOCKEND  ---      ---       LVL=0

      00FF12E6H   BLOCK     CODE     ---       LVL=0
      R15         REGSYM    ---      BYTE      Addr
      00FF12EAH   BLOCK     CODE     NEAR LAB  LVL=1
      R14         REGSYM    ---      BYTE      ret
      000001C6H   SYMBOL    EDATA    ---       HostParam
      000001FEH   SYMBOL    EDATA    ---       SensorParam
      00000212H   SYMBOL    EDATA    ---       temp
      ---         BLOCKEND  ---      ---       LVL=1
      00FF12E6H   LINE      CODE     ---       #443
      00FF12EAH   LINE      CODE     ---       #444
      00FF12EAH   LINE      CODE     ---       #445
      00FF12ECH   LINE      CODE     ---       #449
      00FF1307H   LINE      CODE     ---       #451
      00FF1318H   LINE      CODE     ---       #453
      00FF1324H   LINE      CODE     ---       #454
      00FF133BH   LINE      CODE     ---       #455
      00FF1343H   LINE      CODE     ---       #456
      00FF134BH   LINE      CODE     ---       #457
      00FF135EH   LINE      CODE     ---       #458
      00FF136DH   LINE      CODE     ---       #459
      00FF1380H   LINE      CODE     ---       #460
      00FF138FH   LINE      CODE     ---       #461
      00FF13A2H   LINE      CODE     ---       #462
      00FF13B1H   LINE      CODE     ---       #463
      00FF13C0H   LINE      CODE     ---       #464
      00FF13C3H   LINE      CODE     ---       #465
      00FF13C3H   LINE      CODE     ---       #466
      00FF13CEH   LINE      CODE     ---       #467
      00FF13D0H   LINE      CODE     ---       #468
      ---         BLOCKEND  ---      ---       LVL=0

      00FF11E4H   BLOCK     CODE     ---       LVL=0
      R15         REGSYM    ---      BYTE      Addr
      00FF11E8H   BLOCK     CODE     NEAR LAB  LVL=1
      R14         REGSYM    ---      BYTE      ret
      000001C6H   SYMBOL    EDATA    ---       HostParam
      000001FEH   SYMBOL    EDATA    ---       SensorParam
      00000212H   SYMBOL    EDATA    ---       temp
      ---         BLOCKEND  ---      ---       LVL=1
      00FF11E4H   LINE      CODE     ---       #472
      00FF11E8H   LINE      CODE     ---       #473
      00FF11E8H   LINE      CODE     ---       #474
L251 LINKER/LOCATER V4.66.93.0                                                        06/26/2024  16:41:43  PAGE 35


      00FF11EAH   LINE      CODE     ---       #478
      00FF1205H   LINE      CODE     ---       #480
      00FF1211H   LINE      CODE     ---       #481
      00FF1228H   LINE      CODE     ---       #483
      00FF1230H   LINE      CODE     ---       #484
      00FF1238H   LINE      CODE     ---       #486
      00FF124FH   LINE      CODE     ---       #487
      00FF1262H   LINE      CODE     ---       #489
      00FF1279H   LINE      CODE     ---       #490
      00FF128CH   LINE      CODE     ---       #492
      00FF12A3H   LINE      CODE     ---       #493
      00FF12B6H   LINE      CODE     ---       #495
      00FF12C7H   LINE      CODE     ---       #497
      00FF12D3H   LINE      CODE     ---       #498
      00FF12D6H   LINE      CODE     ---       #499
      00FF12D6H   LINE      CODE     ---       #500
      00FF12E1H   LINE      CODE     ---       #501
      00FF12E3H   LINE      CODE     ---       #502
      ---         BLOCKEND  ---      ---       LVL=0

      00FF208EH   BLOCK     CODE     ---       LVL=0
      R7          REGSYM    ---      BYTE      Ctl
      00FF208EH   LINE      CODE     ---       #504
      00FF2090H   LINE      CODE     ---       #506
      00FF2094H   LINE      CODE     ---       #509
      00FF2096H   LINE      CODE     ---       #510
      00FF2098H   LINE      CODE     ---       #514
      00FF209DH   LINE      CODE     ---       #515
      00FF209DH   LINE      CODE     ---       #516
      00FF20A8H   LINE      CODE     ---       #517
      00FF20AAH   LINE      CODE     ---       #518
      ---         BLOCKEND  ---      ---       LVL=0

      00FF1D5CH   BLOCK     CODE     ---       LVL=0
      REG=0       REGSYM    ---      ---       led
      00FF1D5CH   LINE      CODE     ---       #520
      00FF1D5CH   LINE      CODE     ---       #522
      00FF1D6DH   LINE      CODE     ---       #525
      00FF1D73H   LINE      CODE     ---       #527
      00FF1D76H   LINE      CODE     ---       #528
      00FF1D78H   LINE      CODE     ---       #531
      00FF1D7BH   LINE      CODE     ---       #533
      00FF1D7BH   LINE      CODE     ---       #535
      00FF1D81H   LINE      CODE     ---       #537
      00FF1D84H   LINE      CODE     ---       #538
      00FF1D86H   LINE      CODE     ---       #541
      00FF1D89H   LINE      CODE     ---       #542
      00FF1D89H   LINE      CODE     ---       #544
      00FF1D94H   LINE      CODE     ---       #545
      00FF1D96H   LINE      CODE     ---       #546
      ---         BLOCKEND  ---      ---       LVL=0

      00FF1B5FH   BLOCK     CODE     ---       LVL=0
      REG=0       REGSYM    ---      ---       Light
      00FF1B5FH   LINE      CODE     ---       #548
      00FF1B5FH   LINE      CODE     ---       #550
      00FF1B70H   LINE      CODE     ---       #551
      00FF1B76H   LINE      CODE     ---       #553
      00FF1B79H   LINE      CODE     ---       #554
      00FF1B7BH   LINE      CODE     ---       #557
      00FF1B7EH   LINE      CODE     ---       #558
      00FF1B7EH   LINE      CODE     ---       #560
      00FF1B84H   LINE      CODE     ---       #562
      00FF1B87H   LINE      CODE     ---       #563
      00FF1B89H   LINE      CODE     ---       #566
L251 LINKER/LOCATER V4.66.93.0                                                        06/26/2024  16:41:43  PAGE 36


      00FF1B8CH   LINE      CODE     ---       #567
      00FF1B8CH   LINE      CODE     ---       #569
      00FF1B92H   LINE      CODE     ---       #571
      00FF1B95H   LINE      CODE     ---       #572
      00FF1B97H   LINE      CODE     ---       #575
      00FF1B9AH   LINE      CODE     ---       #576
      00FF1B9AH   LINE      CODE     ---       #577
      00FF1BA0H   LINE      CODE     ---       #579
      00FF1BA3H   LINE      CODE     ---       #580
      00FF1BA5H   LINE      CODE     ---       #583
      00FF1BA8H   LINE      CODE     ---       #584
      00FF1BA8H   LINE      CODE     ---       #586
      00FF1BB3H   LINE      CODE     ---       #587
      00FF1BB5H   LINE      CODE     ---       #590
      ---         BLOCKEND  ---      ---       LVL=0

      00FF1610H   BLOCK     CODE     ---       LVL=0
      R15         REGSYM    ---      BYTE      Addr
      00FF1614H   BLOCK     CODE     NEAR LAB  LVL=1
      000001C6H   SYMBOL    EDATA    ---       buf
      ---         BLOCKEND  ---      ---       LVL=1
      00FF1610H   LINE      CODE     ---       #603
      00FF1614H   LINE      CODE     ---       #604
      00FF1614H   LINE      CODE     ---       #605
      00FF1637H   LINE      CODE     ---       #607
      00FF163BH   LINE      CODE     ---       #609
      00FF1652H   LINE      CODE     ---       #610
      00FF1654H   LINE      CODE     ---       #613
      00FF1662H   LINE      CODE     ---       #615
      00FF1679H   LINE      CODE     ---       #616
      00FF1684H   LINE      CODE     ---       #617
      00FF1686H   LINE      CODE     ---       #620
      00FF1689H   LINE      CODE     ---       #621
      00FF1689H   LINE      CODE     ---       #622
      00FF1689H   LINE      CODE     ---       #623
      00FF1698H   LINE      CODE     ---       #624
      00FF169AH   LINE      CODE     ---       #625
      ---         BLOCKEND  ---      ---       LVL=0

      00FF1F83H   BLOCK     CODE     ---       LVL=0
      REG=7       REGSYM    ---      ---       dataBuf
      WR8         REGSYM    ---      WORD      len
      00FF1F87H   BLOCK     CODE     NEAR LAB  LVL=1
      R11         REGSYM    ---      BYTE      i
      R10         REGSYM    ---      BYTE      lchecksum
      ---         BLOCKEND  ---      ---       LVL=1
      00FF1F83H   LINE      CODE     ---       #638
      00FF1F87H   LINE      CODE     ---       #639
      00FF1F87H   LINE      CODE     ---       #640
      00FF1F87H   LINE      CODE     ---       #641
      00FF1F87H   LINE      CODE     ---       #642
      00FF1F89H   LINE      CODE     ---       #643
      00FF1F8DH   LINE      CODE     ---       #645
      00FF1F98H   LINE      CODE     ---       #646
      00FF1FA5H   LINE      CODE     ---       #647
      00FF1FA7H   LINE      CODE     ---       #648
      ---         BLOCKEND  ---      ---       LVL=0

      ---         MODULE    ---      ---       MwPro
      000000D0H   SFRSYM    DATA     BYTE      PSW
      0000009DH   SFRSYM    DATA     BYTE      IRCBAND
      00000097H   SFRSYM    DATA     BYTE      AUXR2
      000000EFH   SFRSYM    DATA     BYTE      AUXINTIF
      000000FDH   SFRSYM    DATA     BYTE      S4CON
      000000ACH   SFRSYM    DATA     BYTE      S3CON
L251 LINKER/LOCATER V4.66.93.0                                                        06/26/2024  16:41:43  PAGE 37


      0000009AH   SFRSYM    DATA     BYTE      S2CON
      000000B7H   SFRSYM    DATA     BYTE      IPH
      000000CDH   SFRSYM    DATA     BYTE      SPSTAT
      000000DDH   SFRSYM    DATA     BYTE      T4T3M
      000000C1H   SFRSYM    DATA     BYTE      WDT_CONTR
      000000DFH   SFRSYM    DATA     BYTE      IP3
      000000F4H   SFRSYM    DATA     BYTE      USBCON
      000000B5H   SFRSYM    DATA     BYTE      IP2
      000000FFH   SFRSYM    DATA     BYTE      RSTCFG
      000000C7H   SFRSYM    DATA     BYTE      IAP_CONTR
      000000F9H   SFRSYM    DATA     BYTE      LINICR
      0000008EH   SFRSYM    DATA     BYTE      AUXR
      000000AFH   SFRSYM    DATA     BYTE      IE2
      00000088H   SFRSYM    DATA     BYTE      TCON
      00000089H   SFRSYM    DATA     BYTE      TMOD
      00000098H   SFRSYM    DATA     BYTE      SCON
      000000F1H   SFRSYM    DATA     BYTE      CANICR
      00000087H   SFRSYM    DATA     BYTE      PCON
      000000BCH   SFRSYM    DATA     BYTE      ADC_CONTR
      000000E7H   SFRSYM    DATA     BYTE      CMPCR2
      000000E6H   SFRSYM    DATA     BYTE      CMPCR1
      000000DEH   SFRSYM    DATA     BYTE      ADCCFG
      000000B8H   SFRSYM    DATA     BYTE      IP
      0000008FH   SFRSYM    DATA     BYTE      INTCLKO
      000000EEH   SFRSYM    DATA     BYTE      IP3H
      000000B6H   SFRSYM    DATA     BYTE      IP2H
      000000A8H   SFRSYM    DATA     BYTE      IE
      000000BBH   SFRSYM    DATA     BYTE      P_SW3
      000000BAH   SFRSYM    DATA     BYTE      P_SW2
      000000A2H   SFRSYM    DATA     BYTE      P_SW1
      000000CEH   SFRSYM    DATA     BYTE      SPCTL
      000000F8H   SFRSYM    DATA     BYTE      P7
      000000E8H   SFRSYM    DATA     BYTE      P6
      000000C8H   SFRSYM    DATA     BYTE      P5
      000000C0H   SFRSYM    DATA     BYTE      P4
      000000B0H   SFRSYM    DATA     BYTE      P3
      000000A0H   SFRSYM    DATA     BYTE      P2
      00000090H   SFRSYM    DATA     BYTE      P1
      00000080H   SFRSYM    DATA     BYTE      P0
      REG=7       REGSYM    ---      ---       buf
      R10         REGSYM    ---      BYTE      len
      R7          REGSYM    ---      BYTE      dwSum
      R6          REGSYM    ---      BYTE      i
      R11         REGSYM    ---      BYTE      Bh
      R10         REGSYM    ---      BYTE      Bl
      R5          REGSYM    ---      BYTE      temp

      ---         MODULE    ---      ---       ?C?FPDIV
      00FF0046H   PUBLIC    CODE     ---       ?C?FPDIV

      ---         MODULE    ---      ---       ?C?FCAST
      00FF00D1H   PUBLIC    CODE     NEAR LAB  ?C?FCASTC
      00FF00CCH   PUBLIC    CODE     NEAR LAB  ?C?FCASTI
      00FF00C7H   PUBLIC    CODE     NEAR LAB  ?C?FCASTL

      ---         MODULE    ---      ---       ?C?CASTF
      00FF0104H   PUBLIC    CODE     NEAR LAB  ?C?CASTF

      ---         MODULE    ---      ---       PRINTF
      00000245H   PUBLIC    EDATA    ---       ?PRINTF?BYTE
      00FF0141H   PUBLIC    CODE     NEAR LAB  PRINTF

      ---         MODULE    ---      ---       SPRINTF
      0000024EH   PUBLIC    EDATA    ---       ?SPRINTF?BYTE
      00FF016DH   PUBLIC    CODE     NEAR LAB  SPRINTF
L251 LINKER/LOCATER V4.66.93.0                                                        06/26/2024  16:41:43  PAGE 38



      ---         MODULE    ---      ---       ?C?FPGETOPN
      00FF018DH   PUBLIC    CODE     ---       ?C?FPGETOPN2
      00FF01CAH   PUBLIC    CODE     ---       ?C?FPNANRESULT
      00FF01D2H   PUBLIC    CODE     ---       ?C?FPOVERFLOW
      00FF01A6H   PUBLIC    CODE     ---       ?C?FPRESULT
      00FF01BCH   PUBLIC    CODE     ---       ?C?FPRESULT2
      00FF01CFH   PUBLIC    CODE     ---       ?C?FPUNDERFLOW

      ---         MODULE    ---      ---       ?C?PRNFMT
      00FF020BH   PUBLIC    CODE     ---       ?C?PRNFMT

      ---         MODULE    ---      ---       ?C?FPCONVERT
      00FF0628H   PUBLIC    CODE     ---       ?C?FPCONVERT
      00FF06E0H   PUBLIC    CODE     ---       ?C?FPROUND

      ---         MODULE    ---      ---       ?C?FPMUL
      00FF0723H   PUBLIC    CODE     ---       ?C?FPMUL

      ---         MODULE    ---      ---       ?C?FTNPWR
      00FF07F3H   PUBLIC    CODE     ---       ?C?FTNPWR

      ---         MODULE    ---      ---       ?C_START
      00FF0000H   PUBLIC    CODE     ---       ?C?STARTUP
      00FF0000H   PUBLIC    CODE     ---       ?C_STARTUP

      ---         MODULE    ---      ---       ?C?INITEDATA
      00FF1917H   PUBLIC    CODE     ---       ?C?INITEDATA

      ---         MODULE    ---      ---       ?C?INITHDATA
      00FF1940H   PUBLIC    CODE     ---       ?C?INITHDATA

      ---         MODULE    ---      ---       ?C?SIDIV
      00FF082AH   PUBLIC    CODE     ---       ?C?SIDIV

      ---         MODULE    ---      ---       ?C?ULDIV
      00FF085EH   PUBLIC    CODE     NEAR LAB  ?C?ULDIV
      00FF085CH   PUBLIC    CODE     NEAR LAB  ?C?ULIDIV

      ---         MODULE    ---      ---       ATOI
      00FF169DH   PUBLIC    CODE     ---       atoi?_

      ---         MODULE    ---      ---       STRLEN
      00FF2153H   PUBLIC    CODE     ---       strlen?_

      ---         MODULE    ---      ---       memcmp
      00FF1E60H   PUBLIC    CODE     ---       memcmp?_

      ---         MODULE    ---      ---       memcpy
      00FF1FA8H   PUBLIC    CODE     ---       memcpy?_

      ---         MODULE    ---      ---       memset
      00FF20C5H   PUBLIC    CODE     ---       memset?_

      ---         MODULE    ---      ---       ?C?INITEDATA_END
      00FF221CH   PUBLIC    HCONST   WORD      ?C?INITEDATA_END

      ---         MODULE    ---      ---       ?C?INITHDATA_END
      00FF2263H   PUBLIC    HCONST   WORD      ?C?INITHDATA_END

      ---         MODULE    ---      ---       ISDIGIT
      00FF2143H   PUBLIC    CODE     ---       isdigit?_

      ---         MODULE    ---      ---       ISSPACE
      00FF20F6H   PUBLIC    CODE     ---       isspace?_
L251 LINKER/LOCATER V4.66.93.0                                                        06/26/2024  16:41:43  PAGE 39



Program Size: data=8.4 edata+hdata=877 xdata=1280 const=340 code=8547
L251 RUN COMPLETE.  0 WARNING(S),  0 ERROR(S)
