L251 LINKER/LOCATER V4.66.93.0                                                          08/29/2024  10:02:11  PAGE 1


L251 LINKER/LOCATER V4.66.93.0, INVOKED BY:
D:\KEILMDK\C251\BIN\L251.EXE .\obj\main.obj, .\obj\uart.obj, .\obj\time.obj, .\obj\i2c.obj, .\obj\mcp4725.obj, .\obj\ads
>> 1110.obj, .\obj\cmd.obj, .\obj\MwPro.obj TO .\obj\PileCore PRINT (.\obj\PileCore.map) CASE REMOVEUNUSED CLASSES (EDAT
>> A (0X0-0XFFF), HDATA (0X0-0XFFF))


CPU MODE:     251 SOURCE MODE
INTR FRAME:   2 BYTES SAVED ON INTERRUPT
MEMORY MODEL: XSMALL WITH FLOATING POINT ARITHMETIC


INPUT MODULES INCLUDED:
  .\obj\main.obj (main)
         COMMENT TYPE 0: C251 V5.60.0
  .\obj\uart.obj (uart)
         COMMENT TYPE 0: C251 V5.60.0
  .\obj\time.obj (time)
         COMMENT TYPE 0: C251 V5.60.0
  .\obj\i2c.obj (i2c)
         COMMENT TYPE 0: C251 V5.60.0
  .\obj\mcp4725.obj (mcp4725)
         COMMENT TYPE 0: C251 V5.60.0
  .\obj\ads1110.obj (ads1110)
         COMMENT TYPE 0: C251 V5.60.0
  .\obj\cmd.obj (cmd)
         COMMENT TYPE 0: C251 V5.60.0
  .\obj\MwPro.obj (MwPro)
         COMMENT TYPE 0: C251 V5.60.0
  D:\KEILMDK\C251\LIB\C2SFPXS.LIB (?C?FPDIV)
         COMMENT TYPE 0: A251 V4.69.6.0
  D:\KEILMDK\C251\LIB\C2SFPXS.LIB (?C?FCAST)
         COMMENT TYPE 0: A251 V4.69.6.0
  D:\KEILMDK\C251\LIB\C2SFPXS.LIB (?C?CASTF)
         COMMENT TYPE 0: A251 V4.69.6.0
  D:\KEILMDK\C251\LIB\C2SFPXS.LIB (PRINTF)
         COMMENT TYPE 0: A251 V4.69.6.0
  D:\KEILMDK\C251\LIB\C2SFPXS.LIB (SPRINTF)
         COMMENT TYPE 0: A251 V4.69.6.0
  D:\KEILMDK\C251\LIB\C2SFPXS.LIB (?C?FPGETOPN)
         COMMENT TYPE 0: A251 V4.69.6.0
  D:\KEILMDK\C251\LIB\C2SFPXS.LIB (?C?PRNFMT)
         COMMENT TYPE 0: A251 V4.69.6.0
  D:\KEILMDK\C251\LIB\C2SFPXS.LIB (?C?FPCONVERT)
         COMMENT TYPE 0: A251 V4.69.6.0
  D:\KEILMDK\C251\LIB\C2SFPXS.LIB (?C?FPMUL)
         COMMENT TYPE 0: A251 V4.69.6.0
  D:\KEILMDK\C251\LIB\C2SFPXS.LIB (?C?FTNPWR)
         COMMENT TYPE 0: A251 V4.69.6.0
  D:\KEILMDK\C251\LIB\C2SXS.LIB (?C_START)
         COMMENT TYPE 0: A251 V4.69.6.0
  D:\KEILMDK\C251\LIB\C2SXS.LIB (?C?INITEDATA)
         COMMENT TYPE 0: A251 V4.69.6.0
  D:\KEILMDK\C251\LIB\C2SXS.LIB (?C?INITHDATA)
         COMMENT TYPE 0: A251 V4.69.6.0
  D:\KEILMDK\C251\LIB\C2SXS.LIB (?C?SIDIV)
         COMMENT TYPE 0: A251 V4.69.6.0
  D:\KEILMDK\C251\LIB\C2SXS.LIB (?C?ULDIV)
         COMMENT TYPE 0: A251 V4.69.6.0
  D:\KEILMDK\C251\LIB\C2SXS.LIB (ATOI)
         COMMENT TYPE 0: C251 V5.58.7
  D:\KEILMDK\C251\LIB\C2SXS.LIB (STRLEN)
         COMMENT TYPE 0: C251 V5.58.7
  D:\KEILMDK\C251\LIB\C2SXS.LIB (memcmp)
         COMMENT TYPE 0: C251 V5.58.7
  D:\KEILMDK\C251\LIB\C2SXS.LIB (memcpy)
         COMMENT TYPE 0: C251 V5.58.7
L251 LINKER/LOCATER V4.66.93.0                                                        08/29/2024  10:02:11  PAGE 2


  D:\KEILMDK\C251\LIB\C2SXS.LIB (memset)
         COMMENT TYPE 0: C251 V5.58.7
  D:\KEILMDK\C251\LIB\C2SXS.LIB (?C?INITEDATA_END)
         COMMENT TYPE 0: A251 V4.69.6.0
  D:\KEILMDK\C251\LIB\C2SXS.LIB (?C?INITHDATA_END)
         COMMENT TYPE 0: A251 V4.69.6.0
  D:\KEILMDK\C251\LIB\C2SXS.LIB (ISDIGIT)
         COMMENT TYPE 0: C251 V5.58.7
  D:\KEILMDK\C251\LIB\C2SXS.LIB (ISSPACE)
         COMMENT TYPE 0: C251 V5.58.7


ACTIVE MEMORY CLASSES OF MODULE:  .\obj\PileCore (main)

BASE        START       END         USED      MEMORY CLASS
==========================================================
000000H     000000H     000FFFH     00036CH   EDATA
000000H     000000H     000FFFH               HDATA
000000H     FF0000H     FFFFFFH     00013CH   HCONST
FF0000H     FF0000H     FFFFFFH     00219FH   CODE
010000H     010000H     01FFFFH     000500H   XDATA
000020H.0   000020H.0   00002FH.7   000000H.4 BIT
FF0000H     FF0000H     FFFFFFH     000004H   CONST
000000H     000000H     00007FH     000008H   DATA


MEMORY MAP OF MODULE:  .\obj\PileCore (main)


START     STOP      LENGTH    ALIGN  RELOC    MEMORY CLASS   SEGMENT NAME
=========================================================================
000000H   000007H   000008H   ---    AT..     DATA           "REG BANK 0"
000008H   00000FH   000008H   BYTE   UNIT     EDATA          ?ED?TIME
000010H   000012H   000003H   BYTE   UNIT     EDATA          ?ED?CMD
000013H.0 00001FH.7 00000DH.0 ---    ---      **GAP**
000020H.0 000020H.3 000000H.4 BIT    UNIT     BIT            ?BI?UART
000020H.4 000020H   000000H.4 ---    ---      **GAP**
000021H   0001C0H   0001A0H   BYTE   UNIT     EDATA          ?ED?UART
0001C1H   00024DH   00008DH   BYTE   UNIT     EDATA          _EDATA_GROUP_
00024EH   000281H   000034H   BYTE   UNIT     EDATA          ?ED?MAIN
000282H   000381H   000100H   BYTE   UNIT     EDATA          ?STACK
000382H   00FFFFH   00FC7EH   ---    ---      **GAP**
010000H   0104BFH   0004C0H   BYTE   INSEG    XDATA          ?XD?UART
0104C0H   0104FFH   000040H   BYTE   INSEG    XDATA          ?XD?MAIN
010500H   FEFFFFH   FDFB00H   ---    ---      **GAP**
FF0000H   FF0002H   000003H   ---    OFFS..   CODE           ?CO?start251?4
FF0003H   FF0003H   000001H   BYTE   INSEG    CODE           ?PR?TASK_1S?MAIN
FF0004H   FF0007H   000004H   BYTE   UNIT     CONST          ?CO?PRINTF
FF0008H   FF000AH   000003H   ---    ---      **GAP**
FF000BH   FF000DH   000003H   ---    OFFS..   CODE           ?PR?IV?1
FF000EH   FF001AH   00000DH   BYTE   INSEG    CODE           ?PR?PUTCHAR?UART
FF001BH   FF001DH   000003H   ---    OFFS..   CODE           ?PR?IV?3
FF001EH   FF0022H   000005H   ---    ---      **GAP**
FF0023H   FF0025H   000003H   ---    OFFS..   CODE           ?PR?IV?4
FF0026H   FF0042H   00001DH   BYTE   INSEG    CODE           ?PR?IDLE?MAIN
FF0043H   FF0045H   000003H   ---    OFFS..   CODE           ?PR?IV?8
FF0046H   FF08AEH   000869H   BYTE   UNIT     CODE           ?C?LIB_CODE
FF08AFH   FF0B86H   0002D8H   BYTE   INSEG    CODE           ?PR?READBATVOL?CMD
FF0B87H   FF0E54H   0002CEH   BYTE   INSEG    CODE           ?PR?READ4_20MA?CMD
FF0E55H   FF1047H   0001F3H   BYTE   INSEG    CODE           ?PR?MCP4725_OUTVOL?MCP4725
FF1048H   FF11E3H   00019CH   BYTE   INSEG    CODE           ?PR?HNDPCCMD?CMD
FF11E4H   FF12FAH   000117H   BYTE   INSEG    CODE           ?PR?WRITESENSORPARAM?CMD
FF12FBH   FF13FCH   000102H   BYTE   INSEG    CODE           ?PR?READSENSORPARAM?CMD
FF13FDH   FF14D5H   0000D9H   BYTE   INSEG    CODE           ?PR?TIMERTASK?TIME
FF14D6H   FF1594H   0000BFH   BYTE   INSEG    CODE           ?PR?VALIDFRAME?CMD
L251 LINKER/LOCATER V4.66.93.0                                                        08/29/2024  10:02:11  PAGE 3


FF1595H   FF1639H   0000A5H   BYTE   INSEG    CODE           ?PR?MAKEFRAME?CMD
FF163AH   FF16C6H   00008DH   BYTE   INSEG    CODE           ?PR?DEVVER?CMD
FF16C7H   FF1745H   00007FH   BYTE   INSEG    CODE           ?PR?ATOI?_?ATOI
FF1746H   FF17C2H   00007DH   BYTE   INSEG    CODE           ?PR?MAIN?MAIN
FF17C3H   FF183BH   000079H   BYTE   INSEG    CODE           ?PR?WRITEALARMPARAM?CMD
FF183CH   FF18B2H   000077H   BYTE   INSEG    CODE           ?PR?READALARMPARAM?CMD
FF18B3H   FF1924H   000072H   BYTE   INSEG    CODE           ?PR?HNDINPUT?MAIN
FF1925H   FF1937H   000013H   BYTE   UNIT     CODE           ?C_C51STARTUP
FF1938H   FF1991H   00005AH   BYTE   UNIT     CODE           ?C_C51STARTUP?2
FF1992H   FF1994H   000003H   BYTE   UNIT     CODE           ?C_C51STARTUP?3
FF1995H   FF1A00H   00006CH   BYTE   INSEG    CODE           ?PR?OUTCTL?MAIN
FF1A01H   FF1A66H   000066H   BYTE   INSEG    CODE           ?PR?UART2_ISR?UART
FF1A67H   FF1AC8H   000062H   BYTE   INSEG    CODE           ?PR?UART1_ISR?UART
FF1AC9H   FF1B21H   000059H   BYTE   INSEG    CODE           ?PR?FRAMEREVERT?CMD
FF1B22H   FF1B78H   000057H   BYTE   INSEG    CODE           ?PR?CHANNELALMLIGHTCLT?CMD
FF1B79H   FF1BCCH   000054H   BYTE   INSEG    CODE           ?PR?REPORTINPUT?MAIN
FF1BCDH   FF1C1EH   000052H   BYTE   INSEG    CODE           ?PR?WAITSENSORACK?CMD
FF1C1FH   FF1C6DH   00004FH   BYTE   INSEG    CODE           ?PR?DWORDTOSMALL?CMD
FF1C6EH   FF1CB8H   00004BH   BYTE   INSEG    CODE           ?PR?READDOSERATE?CMD
FF1CB9H   FF1CFBH   000043H   BYTE   INSEG    CODE           ?PR?UART1_INIT?UART
FF1CFCH   FF1D38H   00003DH   BYTE   INSEG    CODE           ?PR?OUTFLASH?MAIN
FF1D39H   FF1D75H   00003DH   BYTE   INSEG    CODE           ?PR?UART2_INIT?UART
FF1D76H   FF1DB0H   00003BH   BYTE   INSEG    CODE           ?PR?LEDCTL?CMD
FF1DB1H   FF1DE4H   000034H   BYTE   INSEG    CODE           ?PR?GETKEY?MAIN
FF1DE5H   FF1E15H   000031H   BYTE   INSEG    CODE           ?PR?CONNECTSENSOR?CMD
FF1E16H   FF1E45H   000030H   BYTE   INSEG    CODE           ?PR?SENDSENSORCMD?CMD
FF1E46H   FF1E74H   00002FH   BYTE   INSEG    CODE           ?PR?MEMCMP?_?MEMCMP
FF1E75H   FF1EA0H   00002CH   BYTE   INSEG    CODE           ?PR?GETSTATUS?MAIN
FF1EA1H   FF1ECBH   00002BH   BYTE   INSEG    CODE           ?PR?IOINIT?MAIN
FF1ECCH   FF1EF4H   000029H   BYTE   INSEG    CODE           ?PR?SENDPCCMD?CMD
FF1EF5H   FF1F1CH   000028H   BYTE   INSEG    CODE           ?PR?SYSINIT?MAIN
FF1F1DH   FF1F44H   000028H   BYTE   INSEG    CODE           ?PR?OUT4_20MA?CMD
FF1F45H   FF1F6BH   000027H   BYTE   INSEG    CODE           ?PR?IOCTLTASK?MAIN
FF1F6CH   FF1F91H   000026H   BYTE   INSEG    CODE           ?PR?HNDPCFRAME?CMD
FF1F92H   FF1FB6H   000025H   BYTE   INSEG    CODE           ?PR?CLEAR_UART1_BUF?UART
FF1FB7H   FF1FDBH   000025H   BYTE   INSEG    CODE           ?PR?CLEAR_UART2_BUF?UART
FF1FDCH   FF2000H   000025H   BYTE   INSEG    CODE           ?PR?CHECKSUM?CMD
FF2001H   FF2025H   000025H   BYTE   INSEG    CODE           ?PR?MEMCPY?_?MEMCPY
FF2026H   FF2047H   000022H   BYTE   INSEG    CODE           ?PR?RUNLED?MAIN
FF2048H   FF2069H   000022H   BYTE   INSEG    CODE           ?PR?CLEARRECVDATA?CMD
FF206AH   FF2088H   00001FH   BYTE   INSEG    CODE           ?PR?LEDINIT?MAIN
FF2089H   FF20A7H   00001FH   BYTE   INSEG    CODE           ?PR?UART1SEND?UART
FF20A8H   FF20C6H   00001FH   BYTE   INSEG    CODE           ?PR?UART2SEND?UART
FF20C7H   FF20E3H   00001DH   BYTE   INSEG    CODE           ?PR?SOUNDCTL?CMD
FF20E4H   FF20FDH   00001AH   BYTE   INSEG    CODE           ?PR?POWEROFF?MAIN
FF20FEH   FF2117H   00001AH   BYTE   INSEG    CODE           ?PR?MEMSET?_?MEMSET
FF2118H   FF212EH   000017H   BYTE   INSEG    CODE           ?PR?DELAY_MS?TIME
FF212FH   FF2142H   000014H   BYTE   INSEG    CODE           ?PR?UART1HND?UART
FF2143H   FF2156H   000014H   BYTE   INSEG    CODE           ?PR?ISSPACE?_?ISSPACE
FF2157H   FF2169H   000013H   BYTE   INSEG    CODE           ?PR?TIMER0ISR?TIME
FF216AH   FF217CH   000013H   BYTE   INSEG    CODE           ?PR?TIMER1ISR?TIME
FF217DH   FF218FH   000013H   BYTE   INSEG    CODE           ?PR?TIMER0_INIT?TIME
FF2190H   FF219FH   000010H   BYTE   INSEG    CODE           ?PR?ISDIGIT?_?ISDIGIT
FF21A0H   FF21AAH   00000BH   BYTE   INSEG    CODE           ?PR?DELAY_US?TIME
FF21ABH   FF2257H   0000ADH   BYTE   UNIT     HCONST         ?C_INITEDATA
FF2258H   FF229EH   000047H   BYTE   UNIT     HCONST         ?C_INITHDATA
FF229FH   FF22C5H   000027H   BYTE   UNIT     HCONST         ?HC?CMD
FF22C6H   FF22E6H   000021H   BYTE   UNIT     HCONST         ?HC?MAIN

* * * * * * * * *   R E M O V E D     S E G M E N T S   * * * * * * * *
   *DEL*:           000030H   BYTE   INSEG    CODE           ?PR?TESTRS485?MAIN
   *DEL*:           00004AH   BYTE   INSEG    CODE           ?PR?PRINTDATA?MAIN
   *DEL*:           000016H   BYTE   INSEG    CODE           ?PR?ERROR?MAIN
   *DEL*:           000003H   BYTE   INSEG    CODE           ?PR?DEBUGMSG?MAIN
   *DEL*:           000039H   BYTE   INSEG    CODE           ?PR?DEBUGINT?MAIN
L251 LINKER/LOCATER V4.66.93.0                                                        08/29/2024  10:02:11  PAGE 4


   *DEL*:           00004DH   BYTE   INSEG    CODE           ?PR?OUTCHANNELLIGHTCTL?MAIN
   *DEL*:           000030H   BYTE   INSEG    CODE           ?PR?MAINTASK?MAIN
   *DEL*:           000014H   BYTE   INSEG    CODE           ?PR?WAITCOMMIDLE?MAIN
   *DEL*:           000094H   BYTE   INSEG    CODE           ?PR?DUMPCMD?MAIN
   *DEL*:           000002H   BYTE   UNIT     EDATA          ?ED?DUMPCMD?MAIN
   *DEL*:           000002H   BYTE   UNIT     EDATA          ?ED?PRINTDATA?MAIN
   *DEL*:           000016H   BYTE   INSEG    CODE           ?PR?UART1_SENDSTRING?UART
   *DEL*:           000011H   BYTE   INSEG    CODE           ?PR?UART1_SENDDATA?UART
   *DEL*:           000012H   BYTE   INSEG    CODE           ?PR?CLEARUART1BUF?UART
   *DEL*:           000016H   BYTE   INSEG    CODE           ?PR?CLEARUART2BUF?UART
   *DEL*:           000037H   BYTE   INSEG    CODE           ?PR?UART2HND?UART
   *DEL*:           000014H   BYTE   INSEG    CODE           ?PR?TIMER1_INIT?TIME
   *DEL*:           000009H   BYTE   INSEG    CODE           ?PR?DELAY?TIME
   *DEL*:           00004FH   BYTE   INSEG    CODE           ?PR?FLOATTOSMALL?CMD
   *DEL*:           000055H   BYTE   INSEG    CODE           ?PR?BYTETOSMALL?CMD
   *DEL*:           00003FH   BYTE   INSEG    CODE           ?PR?WORDTOSMALL?CMD
   *DEL*:           000006H   BYTE   UNIT     EDATA          ?ED?WORDTOSMALL?CMD
   *DEL*:           00000AH   BYTE   UNIT     EDATA          ?ED?BYTETOSMALL?CMD
   *DEL*:           00000CH   BYTE   UNIT     EDATA          ?ED?FLOATTOSMALL?CMD
   *DEL*:           00001EH   BYTE   INSEG    CODE           ?PR?CHECKSUM1?MWPRO
   *DEL*:           000035H   BYTE   INSEG    CODE           ?PR?BCDTOHEX?MWPRO
   *DEL*:           000028H   BYTE   UNIT     EDATA          ?ED?PRINTF
   *DEL*:           00000EH   BYTE   INSEG    CODE           ?PR?STRLEN?_?STRLEN



OVERLAY MAP OF MODULE:   .\obj\PileCore (main)


FUNCTION/MODULE              EDATA_GROUP
--> CALLED FUNCTION/MODULE   START  STOP
========================================
UART1_ISR/uart               ----- -----
  +--> Clear_Uart1_Buf/uart

Clear_Uart1_Buf/uart         ----- -----
  +--> memset?_/memset

memset?_/memset              ----- -----

*** NEW ROOT ***************

UART2_ISR/uart               ----- -----
  +--> Clear_Uart2_Buf/uart

Clear_Uart2_Buf/uart         ----- -----
  +--> memset?_/memset

*** NEW ROOT ***************

Timer0ISR/time               ----- -----

*** NEW ROOT ***************

Timer1ISR/time               ----- -----

*** NEW ROOT ***************

?C_C51STARTUP                ----- -----

*** NEW ROOT ***************

?C_C51STARTUP?3              ----- -----
  +--> main/main

L251 LINKER/LOCATER V4.66.93.0                                                        08/29/2024  10:02:11  PAGE 5


main/main                    ----- -----
  +--> SysInit/main
  +--> IoInit/main
  +--> LedInit/main
  +--> delay_ms/time
  +--> Timer0_Init/time
  +--> Uart1_Init/uart
  +--> Uart2_Init/uart
  +--> memset?_/memset
  +--> Out4_20ma/cmd
  +--> TimerTask/time
  +--> HndInput/main
  +--> ReportInput/main
  +--> Uart1Hnd/uart

SysInit/main                 ----- -----

IoInit/main                  ----- -----

LedInit/main                 ----- -----

delay_ms/time                ----- -----

Timer0_Init/time             ----- -----

Uart1_Init/uart              ----- -----

Uart2_Init/uart              ----- -----

Out4_20ma/cmd                ----- -----
  +--> MCP4725_OutVol/mcp4725
  +--> SendPcCmd/cmd

MCP4725_OutVol/mcp4725       01C6H 01C9H
  +--> ?C?ULIDIV/?C?ULDIV
  +--> delay_us/time

?C?ULIDIV/?C?ULDIV           ----- -----

delay_us/time                ----- -----

SendPcCmd/cmd                ----- -----
  +--> MakeFrame/cmd
  +--> Uart1Send/uart

MakeFrame/cmd                0217H 0220H
  +--> memcpy?_/memcpy
  +--> CheckSum/cmd
  +--> SPRINTF/SPRINTF

memcpy?_/memcpy              ----- -----

CheckSum/cmd                 ----- -----

SPRINTF/SPRINTF              0226H 024DH
  +--> OUT/SPRINTF

OUT/SPRINTF                  ----- -----
  +--> PUTCH/SPRINTF

PUTCH/SPRINTF                ----- -----

Uart1Send/uart               ----- -----

TimerTask/time               ----- -----
L251 LINKER/LOCATER V4.66.93.0                                                        08/29/2024  10:02:11  PAGE 6


  +--> Task_1s/main
  +--> RunLed/main
  +--> IoCtlTask/main

Task_1s/main                 ----- -----

RunLed/main                  ----- -----

IoCtlTask/main               ----- -----
  +--> OutFlash/main
  +--> OutCtl/main

OutFlash/main                ----- -----
  +--> OutCtl/main

OutCtl/main                  ----- -----

HndInput/main                ----- -----
  +--> GetKey/main
  +--> GetStatus/main
  +--> PowerOff/main

GetKey/main                  ----- -----
  +--> delay_ms/time

GetStatus/main               ----- -----
  +--> delay_ms/time

PowerOff/main                ----- -----

ReportInput/main             01C1H 01C1H
  +--> SendPcCmd/cmd

Uart1Hnd/uart                ----- -----
  +--> HndPcFrame/cmd

HndPcFrame/cmd               ----- -----
  +--> ValidFrame/cmd
  +--> HndPcCmd/cmd
  +--> ClearRecvData/cmd

ValidFrame/cmd               021BH 0225H
  +--> memcpy?_/memcpy
  +--> CheckSum/cmd
  +--> SPRINTF/SPRINTF
  +--> memcmp?_/memcmp

memcmp?_/memcmp              ----- -----

HndPcCmd/cmd                 01C1H 01C5H
  +--> memcpy?_/memcpy
  +--> SoundCtl/cmd
  +--> LedCtl/cmd
  +--> Out4_20ma/cmd
  +--> Read4_20ma/cmd
  +--> DevVer/cmd
  +--> ReadBatVol/cmd
  +--> ChannelAlmLightClt/cmd
  +--> ConnectSensor/cmd
  +--> ReadDoseRate/cmd
  +--> ReadAlarmParam/cmd
  +--> WriteAlarmParam/cmd
  +--> ReadSensorParam/cmd
  +--> WriteSensorParam/cmd
  +--> FrameRevert/cmd
L251 LINKER/LOCATER V4.66.93.0                                                        08/29/2024  10:02:11  PAGE 7



SoundCtl/cmd                 ----- -----
  +--> SendPcCmd/cmd

LedCtl/cmd                   ----- -----
  +--> memcpy?_/memcpy
  +--> SendPcCmd/cmd

Read4_20ma/cmd               01C6H 01CAH
  +--> delay_us/time
  +--> SendPcCmd/cmd

DevVer/cmd                   01C6H 01CCH
  +--> memcpy?_/memcpy
  +--> SendSensorCmd/cmd
  +--> ClearRecvData/cmd
  +--> SendPcCmd/cmd

SendSensorCmd/cmd            ----- -----
  +--> MakeFrame/cmd
  +--> Uart2Send/uart
  +--> WaitSensorAck/cmd

Uart2Send/uart               ----- -----

WaitSensorAck/cmd            0217H 021AH
  +--> ValidFrame/cmd
  +--> Idle/main

Idle/main                    ----- -----
  +--> TimerTask/time
  +--> HndInput/main

ClearRecvData/cmd            ----- -----
  +--> memset?_/memset

ReadBatVol/cmd               01C6H 01CCH
  +--> delay_us/time
  +--> SendPcCmd/cmd

ChannelAlmLightClt/cmd       ----- -----
  +--> memcpy?_/memcpy
  +--> SendPcCmd/cmd

ConnectSensor/cmd            ----- -----
  +--> SendSensorCmd/cmd
  +--> SendPcCmd/cmd
  +--> ClearRecvData/cmd

ReadDoseRate/cmd             01C6H 01DEH
  +--> SendSensorCmd/cmd
  +--> memcpy?_/memcpy
  +--> SendPcCmd/cmd
  +--> ClearRecvData/cmd

ReadAlarmParam/cmd           01C6H 01EDH
  +--> SendSensorCmd/cmd
  +--> memset?_/memset
  +--> memcpy?_/memcpy
  +--> SendPcCmd/cmd
  +--> ClearRecvData/cmd

WriteAlarmParam/cmd          01C6H 01EDH
  +--> memset?_/memset
  +--> memcpy?_/memcpy
L251 LINKER/LOCATER V4.66.93.0                                                        08/29/2024  10:02:11  PAGE 8


  +--> SendSensorCmd/cmd
  +--> SendPcCmd/cmd
  +--> ClearRecvData/cmd

ReadSensorParam/cmd          01C6H 0216H
  +--> SendSensorCmd/cmd
  +--> memset?_/memset
  +--> memcpy?_/memcpy
  +--> atoi?_/ATOI
  +--> DwordToSmall/cmd
  +--> SendPcCmd/cmd
  +--> ClearRecvData/cmd

atoi?_/ATOI                  ----- -----
  +--> isspace?_/ISSPACE
  +--> isdigit?_/ISDIGIT

isspace?_/ISSPACE            ----- -----

isdigit?_/ISDIGIT            ----- -----

DwordToSmall/cmd             0217H 0222H
  +--> memcpy?_/memcpy

WriteSensorParam/cmd         01C6H 0216H
  +--> memset?_/memset
  +--> memcpy?_/memcpy
  +--> DwordToSmall/cmd
  +--> SPRINTF/SPRINTF
  +--> SendSensorCmd/cmd
  +--> SendPcCmd/cmd
  +--> ClearRecvData/cmd

FrameRevert/cmd              01C6H 01C6H
  +--> SendSensorCmd/cmd
  +--> SendPcCmd/cmd
  +--> ClearRecvData/cmd

*** NEW ROOT ***************

?C_C51STARTUP?2              ----- -----



PUBLIC SYMBOLS OF MODULE:  .\obj\PileCore (main)


      VALUE       CLASS    TYPE      PUBLIC SYMBOL NAME
      =================================================
      00FF0104H   CODE     NEAR LAB  ?C?CASTF
      000000FFH   NUMBER   ---       ?C?CODESEG
      00FF00D1H   CODE     NEAR LAB  ?C?FCASTC
      00FF00CCH   CODE     NEAR LAB  ?C?FCASTI
      00FF00C7H   CODE     NEAR LAB  ?C?FCASTL
      00FF0628H   CODE     ---       ?C?FPCONVERT
      00FF0046H   CODE     ---       ?C?FPDIV
      00FF018DH   CODE     ---       ?C?FPGETOPN2
      00FF0723H   CODE     ---       ?C?FPMUL
      00FF01CAH   CODE     ---       ?C?FPNANRESULT
      00FF01D2H   CODE     ---       ?C?FPOVERFLOW
      00FF01A6H   CODE     ---       ?C?FPRESULT
      00FF01BCH   CODE     ---       ?C?FPRESULT2
      00FF06E0H   CODE     ---       ?C?FPROUND
      00FF01CFH   CODE     ---       ?C?FPUNDERFLOW
      00FF07F3H   CODE     ---       ?C?FTNPWR
L251 LINKER/LOCATER V4.66.93.0                                                        08/29/2024  10:02:11  PAGE 9


      00FF1938H   CODE     ---       ?C?INITEDATA
      00FF2256H   HCONST   WORD      ?C?INITEDATA_END
      00FF1961H   CODE     ---       ?C?INITHDATA
      00FF229DH   HCONST   WORD      ?C?INITHDATA_END
      00FF020BH   CODE     ---       ?C?PRNFMT
      00FF082AH   CODE     ---       ?C?SIDIV
      00FF0000H   CODE     ---       ?C?STARTUP
      00FF085EH   CODE     NEAR LAB  ?C?ULDIV
      00FF085CH   CODE     NEAR LAB  ?C?ULIDIV
      00000001H   NUMBER   ---       ?C?XDATASEG
      00FF0000H   CODE     ---       ?C_STARTUP
      00000211H   EDATA    BYTE      ?MakeFrame?BYTE
*DEL*:00000028H   EDATA    ---       ?printf?BYTE
      0000024EH   EDATA    ---       ?sprintf?BYTE
*SFR* 000000BCH   DATA     BYTE      ADC_CONTR
*SFR* 000000DEH   DATA     BYTE      ADCCFG
      00FF16C7H   CODE     ---       atoi?_
*SFR* 000000EFH   DATA     BYTE      AUXINTIF
*SFR* 0000008EH   DATA     BYTE      AUXR
*SFR* 00000097H   DATA     BYTE      AUXR2
      00000020H.0 BIT      BIT       B_TX1_Busy
      00000020H.1 BIT      BIT       B_TX2_Busy
      00000020H.2 BIT      BIT       B_TX3_Busy
      00000020H.3 BIT      BIT       B_TX4_Busy
*DEL*:00000000H   CODE     ---       BcdToHex
*DEL*:00000000H   CODE     ---       ByteToSmall
*SFR* 000000F1H   DATA     BYTE      CANICR
      00FF1B22H   CODE     ---       ChannelAlmLightClt
      00FF1FDCH   CODE     ---       CheckSum
*DEL*:00000000H   CODE     ---       CheckSum1
      00FF1F92H   CODE     ---       Clear_Uart1_Buf
      00FF1FB7H   CODE     ---       Clear_Uart2_Buf
      00FF2048H   CODE     ---       ClearRecvData
*DEL*:00000000H   CODE     ---       ClearUart1Buf
*DEL*:00000000H   CODE     ---       ClearUart2Buf
*SFR* 000000C1H.4 DATA     BIT       CLR_WDT
*SFR* 000000E6H   DATA     BYTE      CMPCR1
*SFR* 000000E7H   DATA     BYTE      CMPCR2
      00FF1DE5H   CODE     ---       ConnectSensor
*DEL*:00000000H   CODE     ---       DebugInt
*DEL*:00000000H   CODE     ---       DebugMsg
*DEL*:00000000H   CODE     ---       Delay
      00FF2118H   CODE     ---       delay_ms
      00FF21A0H   CODE     ---       delay_us
      00FF163AH   CODE     ---       DevVer
*DEL*:00000000H   CODE     ---       DumpCmd
      00FF1C1FH   CODE     ---       DwordToSmall
*SFR* 000000A8H.7 DATA     BIT       EA
*SFR* 000000BAH.7 DATA     BIT       EAXFR
*DEL*:00000000H   CODE     ---       Error
*SFR* 000000A8H.4 DATA     BIT       ES
*SFR* 000000AFH.0 DATA     BIT       ES2
*SFR* 000000A8H.1 DATA     BIT       ET0
*SFR* 000000A8H.3 DATA     BIT       ET1
*SFR* 000000AFH.2 DATA     BIT       ET2
*DEL*:00000000H   CODE     ---       FloatToSmall
      00FF1AC9H   CODE     ---       FrameRevert
      00000011H   EDATA    WORD      g_CommIdleTime
      00000010H   EDATA    BYTE      g_CrcFlag
      00000254H   EDATA    BYTE      g_Key_Confrom
      0000026AH   EDATA    BYTE      g_Key_Input
      00000269H   EDATA    BYTE      g_Key_Power
      0000025BH   EDATA    ---       g_OutChannelLight
      0000025FH   EDATA    ---       g_OutChannelStatus
      00000263H   EDATA    ---       g_Output
L251 LINKER/LOCATER V4.66.93.0                                                        08/29/2024  10:02:11  PAGE 10


      0000024EH   EDATA    ---       g_OutStatus
      00010190H   XDATA    ---       g_UartData
      00FF1DB1H   CODE     ---       GetKey
      00FF1E75H   CODE     ---       GetStatus
      0000026BH   EDATA    DWORD     gIdleTime
      00000255H   EDATA    WORD      gRunTime
      00000257H   EDATA    DWORD     gTask1sTime
      00FF18B3H   CODE     ---       HndInput
      00FF1048H   CODE     ---       HndPcCmd
      00FF1F6CH   CODE     ---       HndPcFrame
*SFR* 000000C7H   DATA     BYTE      IAP_CONTR
      00FF0026H   CODE     ---       Idle
*SFR* 000000A8H   DATA     BYTE      IE
*SFR* 000000AFH   DATA     BYTE      IE2
      0000026FH   EDATA    BYTE      Input_Status
*SFR* 0000008FH   DATA     BYTE      INTCLKO
      00FF1F45H   CODE     ---       IoCtlTask
      00FF1EA1H   CODE     ---       IoInit
*SFR* 000000B8H   DATA     BYTE      IP
*SFR* 000000B5H   DATA     BYTE      IP2
*SFR* 000000B6H   DATA     BYTE      IP2H
*SFR* 000000DFH   DATA     BYTE      IP3
*SFR* 000000EEH   DATA     BYTE      IP3H
*SFR* 000000B7H   DATA     BYTE      IPH
*SFR* 0000009DH   DATA     BYTE      IRCBAND
      00FF2190H   CODE     ---       isdigit?_
      00FF2143H   CODE     ---       isspace?_
      00FF1D76H   CODE     ---       LedCtl
      00FF206AH   CODE     ---       LedInit
*SFR* 000000F9H   DATA     BYTE      LINICR
      00FF1746H   CODE     ---       main
*DEL*:00000000H   CODE     ---       MainTask
      00FF1595H   CODE     ---       MakeFrame
      00FF0E55H   CODE     ---       MCP4725_OutVol
      00FF1E46H   CODE     ---       memcmp?_
      00FF2001H   CODE     ---       memcpy?_
      00FF20FEH   CODE     ---       memset?_
      00FF1F1DH   CODE     ---       Out4_20ma
*DEL*:00000000H   CODE     ---       OutChannelLightCtl
      00FF1995H   CODE     ---       OutCtl
      00FF1CFCH   CODE     ---       OutFlash
*SFR* 00000080H   DATA     BYTE      P0
*SFR* 00000094H   DATA     BYTE      P0M0
*SFR* 00000093H   DATA     BYTE      P0M1
*SFR* 00000090H   DATA     BYTE      P1
*SFR* 00000092H   DATA     BYTE      P1M0
*SFR* 00000091H   DATA     BYTE      P1M1
*SFR* 000000A0H   DATA     BYTE      P2
*SFR* 00000096H   DATA     BYTE      P2M0
*SFR* 00000095H   DATA     BYTE      P2M1
*SFR* 000000B0H   DATA     BYTE      P3
*SFR* 000000B2H   DATA     BYTE      P3M0
*SFR* 000000B1H   DATA     BYTE      P3M1
*SFR* 000000C0H   DATA     BYTE      P4
*SFR* 000000B4H   DATA     BYTE      P4M0
*SFR* 000000B3H   DATA     BYTE      P4M1
*SFR* 000000C8H   DATA     BYTE      P5
*SFR* 000000CAH   DATA     BYTE      P5M0
*SFR* 000000C9H   DATA     BYTE      P5M1
*SFR* 000000E8H   DATA     BYTE      P6
*SFR* 000000F8H   DATA     BYTE      P7
*SFR* 000000A2H   DATA     BYTE      P_SW1
*SFR* 000000BAH   DATA     BYTE      P_SW2
*SFR* 000000BBH   DATA     BYTE      P_SW3
*SFR* 00000087H   DATA     BYTE      PCON
L251 LINKER/LOCATER V4.66.93.0                                                        08/29/2024  10:02:11  PAGE 11


      00FF20E4H   CODE     ---       PowerOff
*DEL*:00000000H   CODE     ---       PrintData
      00FF0141H   CODE     NEAR LAB  printf
*SFR* 000000B8H.4 DATA     BIT       PS
*SFR* 000000B5H.0 DATA     BIT       PS2
*SFR* 000000B6H.0 DATA     BIT       PS2H
*SFR* 000000B7H.4 DATA     BIT       PSH
*SFR* 000000D0H   DATA     BYTE      PSW
*SFR* 000000B8H.1 DATA     BIT       PT0
*SFR* 000000B7H.1 DATA     BIT       PT0H
      00FF000EH   CODE     ---       putchar
      00FF0B87H   CODE     ---       Read4_20ma
      00FF183CH   CODE     ---       ReadAlarmParam
      00FF08AFH   CODE     ---       ReadBatVol
      00FF1C6EH   CODE     ---       ReadDoseRate
      00FF12FBH   CODE     ---       ReadSensorParam
*SFR* 00000098H.4 DATA     BIT       REN
      00FF1B79H   CODE     ---       ReportInput
*SFR* 00000098H.0 DATA     BIT       RI
*SFR* 000000FFH   DATA     BYTE      RSTCFG
      00FF2026H   CODE     ---       RunLed
      00000021H   EDATA    ---       RX1_Buffer
      000001B7H   EDATA    BYTE      RX1_Cnt
      000001B1H   EDATA    WORD      Rx1_Timer
      00010000H   XDATA    ---       RX2_Buffer
      000001BAH   EDATA    BYTE      RX2_Cnt
      000001B3H   EDATA    WORD      Rx2_Timer
      000100C8H   XDATA    ---       RX3_Buffer
      000001BBH   EDATA    BYTE      RX3_Cnt
      000001B5H   EDATA    WORD      Rx3_Timer
      000000E9H   EDATA    ---       RX4_Buffer
      000001BDH   EDATA    BYTE      RX4_Cnt
      000001B8H   EDATA    WORD      Rx4_Timer
*SFR* 0000009BH   DATA     BYTE      S2BUF
*SFR* 0000009AH   DATA     BYTE      S2CON
*SFR* 0000009AH.4 DATA     BIT       S2REN
*SFR* 0000009AH.0 DATA     BIT       S2RI
*SFR* 0000009AH.1 DATA     BIT       S2TI
*SFR* 000000ACH   DATA     BYTE      S3CON
*SFR* 000000FDH   DATA     BYTE      S4CON
*SFR* 00000099H   DATA     BYTE      SBUF
*SFR* 00000098H   DATA     BYTE      SCON
      00FF1ECCH   CODE     ---       SendPcCmd
      00FF1E16H   CODE     ---       SendSensorCmd
      00FF20C7H   CODE     ---       SoundCtl
*SFR* 000000CEH   DATA     BYTE      SPCTL
      00FF016DH   CODE     NEAR LAB  sprintf
*SFR* 000000CDH   DATA     BYTE      SPSTAT
*DEL*:00000000H   CODE     ---       strlen?_
      000104C0H   XDATA    ---       StrTmp
      00FF1EF5H   CODE     ---       SysInit
*SFR* 000000D6H   DATA     BYTE      T2H
*SFR* 000000D7H   DATA     BYTE      T2L
*SFR* 0000008EH.4 DATA     BIT       T2R
*SFR* 0000008EH.2 DATA     BIT       T2x12
*SFR* 000000DDH   DATA     BYTE      T4T3M
      00FF0003H   CODE     ---       Task_1s
*SFR* 00000088H   DATA     BYTE      TCON
*DEL*:00000000H   CODE     ---       TestRs485
*SFR* 0000008CH   DATA     BYTE      TH0
*SFR* 0000008DH   DATA     BYTE      TH1
*SFR* 00000098H.1 DATA     BIT       TI
      00000008H   EDATA    WORD      Time1s
      00FF217DH   CODE     ---       Timer0_Init
      0000000AH   EDATA    WORD      Timer0Cnt
L251 LINKER/LOCATER V4.66.93.0                                                        08/29/2024  10:02:11  PAGE 12


      00FF2157H   CODE     ---       Timer0ISR
*DEL*:00000000H   CODE     ---       Timer1_Init
      0000000CH   EDATA    WORD      Timer1Cnt
      00FF216AH   CODE     ---       Timer1ISR
      00FF13FDH   CODE     ---       TimerTask
*SFR* 0000008AH   DATA     BYTE      TL0
*SFR* 0000008BH   DATA     BYTE      TL1
*SFR* 00000089H   DATA     BYTE      TMOD
*SFR* 00000088H.4 DATA     BIT       TR0
*SFR* 00000088H.6 DATA     BIT       TR1
      000001BCH   EDATA    BYTE      TX1_Cnt
      000001BEH   EDATA    BYTE      TX2_Cnt
      000001BFH   EDATA    BYTE      TX3_Cnt
      000001C0H   EDATA    BYTE      TX4_Cnt
      00FF1CB9H   CODE     ---       Uart1_Init
      00FF1A67H   CODE     ---       UART1_ISR
*DEL*:00000000H   CODE     ---       UART1_SendData
*DEL*:00000000H   CODE     ---       UART1_SendString
      00FF212FH   CODE     ---       Uart1Hnd
      00FF2089H   CODE     ---       Uart1Send
      00FF1D39H   CODE     ---       Uart2_Init
      00FF1A01H   CODE     ---       UART2_ISR
*DEL*:00000000H   CODE     ---       Uart2Hnd
      00FF20A8H   CODE     ---       Uart2Send
*SFR* 000000F4H   DATA     BYTE      USBCON
      00FF14D6H   CODE     ---       ValidFrame
      00FF22DFH   HCONST   ---       VERSION
*DEL*:00000000H   CODE     ---       WaitCommIdle
      00FF1BCDH   CODE     ---       WaitSensorAck
*SFR* 000000C1H   DATA     BYTE      WDT_CONTR
*DEL*:00000000H   CODE     ---       WordToSmall
      00FF17C3H   CODE     ---       WriteAlarmParam
      00FF11E4H   CODE     ---       WriteSensorParam
*SFR* 000000E9H   DATA     BYTE      WTST



SYMBOL TABLE OF MODULE:  .\obj\PileCore (main)

      VALUE       REP       CLASS    TYPE      SYMBOL NAME
      ====================================================
      ---         MODULE    ---      ---       main
      00FF22DFH   PUBLIC    HCONST   ---       VERSION
      00FF0026H   PUBLIC    CODE     ---       Idle
      00FF1B79H   PUBLIC    CODE     ---       ReportInput
      00FF0003H   PUBLIC    CODE     ---       Task_1s
      00FF1746H   PUBLIC    CODE     ---       main
      00FF1E75H   PUBLIC    CODE     ---       GetStatus
      00FF1CFCH   PUBLIC    CODE     ---       OutFlash
      00FF206AH   PUBLIC    CODE     ---       LedInit
      00FF20E4H   PUBLIC    CODE     ---       PowerOff
      00FF18B3H   PUBLIC    CODE     ---       HndInput
      00FF1DB1H   PUBLIC    CODE     ---       GetKey
      00FF2026H   PUBLIC    CODE     ---       RunLed
      00FF1EA1H   PUBLIC    CODE     ---       IoInit
      00FF1EF5H   PUBLIC    CODE     ---       SysInit
      00FF1995H   PUBLIC    CODE     ---       OutCtl
      00FF1F45H   PUBLIC    CODE     ---       IoCtlTask
      0000024EH   PUBLIC    EDATA    ---       g_OutStatus
      00000254H   PUBLIC    EDATA    BYTE      g_Key_Confrom
      00000255H   PUBLIC    EDATA    WORD      gRunTime
      00000257H   PUBLIC    EDATA    DWORD     gTask1sTime
      0000025BH   PUBLIC    EDATA    ---       g_OutChannelLight
      0000025FH   PUBLIC    EDATA    ---       g_OutChannelStatus
      00000263H   PUBLIC    EDATA    ---       g_Output
L251 LINKER/LOCATER V4.66.93.0                                                        08/29/2024  10:02:11  PAGE 13


      00000269H   PUBLIC    EDATA    BYTE      g_Key_Power
      0000026AH   PUBLIC    EDATA    BYTE      g_Key_Input
      0000026BH   PUBLIC    EDATA    DWORD     gIdleTime
      0000026FH   PUBLIC    EDATA    BYTE      Input_Status
      000104C0H   PUBLIC    XDATA    ---       StrTmp
      00000094H   SFRSYM    DATA     BYTE      P0M0
      000000D0H   SFRSYM    DATA     BYTE      PSW
      000000BAH.7 SFRSYM    DATA     BIT       EAXFR
      0000009DH   SFRSYM    DATA     BYTE      IRCBAND
      00000097H   SFRSYM    DATA     BYTE      AUXR2
      000000EFH   SFRSYM    DATA     BYTE      AUXINTIF
      000000FDH   SFRSYM    DATA     BYTE      S4CON
      000000ACH   SFRSYM    DATA     BYTE      S3CON
      0000009AH   SFRSYM    DATA     BYTE      S2CON
      000000B7H   SFRSYM    DATA     BYTE      IPH
      000000CDH   SFRSYM    DATA     BYTE      SPSTAT
      000000DDH   SFRSYM    DATA     BYTE      T4T3M
      000000C1H   SFRSYM    DATA     BYTE      WDT_CONTR
      000000E9H   SFRSYM    DATA     BYTE      WTST
      000000DFH   SFRSYM    DATA     BYTE      IP3
      000000F4H   SFRSYM    DATA     BYTE      USBCON
      000000B5H   SFRSYM    DATA     BYTE      IP2
      000000FFH   SFRSYM    DATA     BYTE      RSTCFG
      000000C7H   SFRSYM    DATA     BYTE      IAP_CONTR
      000000F9H   SFRSYM    DATA     BYTE      LINICR
      0000008EH   SFRSYM    DATA     BYTE      AUXR
      000000AFH   SFRSYM    DATA     BYTE      IE2
      00000088H   SFRSYM    DATA     BYTE      TCON
      00000089H   SFRSYM    DATA     BYTE      TMOD
      00000098H   SFRSYM    DATA     BYTE      SCON
      000000F1H   SFRSYM    DATA     BYTE      CANICR
      00000087H   SFRSYM    DATA     BYTE      PCON
      000000BCH   SFRSYM    DATA     BYTE      ADC_CONTR
      000000E7H   SFRSYM    DATA     BYTE      CMPCR2
      000000E6H   SFRSYM    DATA     BYTE      CMPCR1
      000000DEH   SFRSYM    DATA     BYTE      ADCCFG
      000000B8H   SFRSYM    DATA     BYTE      IP
      0000008FH   SFRSYM    DATA     BYTE      INTCLKO
      000000EEH   SFRSYM    DATA     BYTE      IP3H
      000000B6H   SFRSYM    DATA     BYTE      IP2H
      000000A8H   SFRSYM    DATA     BYTE      IE
      000000BBH   SFRSYM    DATA     BYTE      P_SW3
      000000BAH   SFRSYM    DATA     BYTE      P_SW2
      000000A2H   SFRSYM    DATA     BYTE      P_SW1
      000000CEH   SFRSYM    DATA     BYTE      SPCTL
      000000F8H   SFRSYM    DATA     BYTE      P7
      000000A8H.7 SFRSYM    DATA     BIT       EA
      000000E8H   SFRSYM    DATA     BYTE      P6
      000000C8H   SFRSYM    DATA     BYTE      P5
      000000C0H   SFRSYM    DATA     BYTE      P4
      000000C9H   SFRSYM    DATA     BYTE      P5M1
      000000B0H   SFRSYM    DATA     BYTE      P3
      000000B3H   SFRSYM    DATA     BYTE      P4M1
      000000CAH   SFRSYM    DATA     BYTE      P5M0
      000000A0H   SFRSYM    DATA     BYTE      P2
      000000B1H   SFRSYM    DATA     BYTE      P3M1
      000000B4H   SFRSYM    DATA     BYTE      P4M0
      00000090H   SFRSYM    DATA     BYTE      P1
      00000095H   SFRSYM    DATA     BYTE      P2M1
      000000B2H   SFRSYM    DATA     BYTE      P3M0
      00000080H   SFRSYM    DATA     BYTE      P0
      00000091H   SFRSYM    DATA     BYTE      P1M1
      00000096H   SFRSYM    DATA     BYTE      P2M0
      00000092H   SFRSYM    DATA     BYTE      P1M0
      00000093H   SFRSYM    DATA     BYTE      P0M1
L251 LINKER/LOCATER V4.66.93.0                                                        08/29/2024  10:02:11  PAGE 14


      REG=1       REGSYM    ---      ---       msg
      WR14        REGSYM    ---      INT       msg
      REG=3       REGSYM    ---      ---       dat

      00FF2026H   BLOCK     CODE     ---       LVL=0
      WR6         REGSYM    ---      WORD      dt
      00000270H   SYMBOL    EDATA    WORD      tm
      00FF2026H   LINE      CODE     ---       #78
      00FF2026H   LINE      CODE     ---       #79
      00FF2026H   LINE      CODE     ---       #81
      00FF2026H   LINE      CODE     ---       #82
      00FF202EH   LINE      CODE     ---       #84
      00FF2034H   LINE      CODE     ---       #86
      00FF203AH   LINE      CODE     ---       #87
      00FF203DH   LINE      CODE     ---       #88
      00FF203EH   LINE      CODE     ---       #89
      00FF2044H   LINE      CODE     ---       #91
      00FF2047H   LINE      CODE     ---       #92
      ---         BLOCKEND  ---      ---       LVL=0

      00FF0026H   BLOCK     CODE     ---       LVL=0
      DR12        REGSYM    ---      DWORD     time
      00FF0026H   LINE      CODE     ---       #95
      00FF002AH   LINE      CODE     ---       #97
      00FF0030H   LINE      CODE     ---       #99
      00FF0032H   LINE      CODE     ---       #101
      00FF0035H   LINE      CODE     ---       #102
      00FF0038H   LINE      CODE     ---       #103
      00FF0040H   LINE      CODE     ---       #104
      ---         BLOCKEND  ---      ---       LVL=0

      00FF1EF5H   BLOCK     CODE     ---       LVL=0
      00FF1EF5H   LINE      CODE     ---       #106
      00FF1EF5H   LINE      CODE     ---       #108
      00FF1F02H   LINE      CODE     ---       #109
      00FF1F10H   LINE      CODE     ---       #110
      00FF1F1CH   LINE      CODE     ---       #111
      ---         BLOCKEND  ---      ---       LVL=0

      00FF1EA1H   BLOCK     CODE     ---       LVL=0
      00FF1EA1H   LINE      CODE     ---       #113
      00FF1EA1H   LINE      CODE     ---       #115
      00FF1EA4H   LINE      CODE     ---       #116
      00FF1EA7H   LINE      CODE     ---       #118
      00FF1EADH   LINE      CODE     ---       #119
      00FF1EB3H   LINE      CODE     ---       #120
      00FF1EB9H   LINE      CODE     ---       #121
      00FF1EBFH   LINE      CODE     ---       #122
      00FF1EC5H   LINE      CODE     ---       #123
      00FF1ECBH   LINE      CODE     ---       #124
      ---         BLOCKEND  ---      ---       LVL=0

      00FF1995H   BLOCK     CODE     ---       LVL=0
      R11         REGSYM    ---      BYTE      id
      R10         REGSYM    ---      BYTE      st
      00FF1995H   LINE      CODE     ---       #152
      00FF1997H   LINE      CODE     ---       #154
      00FF19A1H   LINE      CODE     ---       #156
      00FF19A1H   LINE      CODE     ---       #157
      00FF19A1H   LINE      CODE     ---       #159
      00FF19A5H   LINE      CODE     ---       #161
      00FF19B9H   LINE      CODE     ---       #163
      00FF19B9H   LINE      CODE     ---       #165
      00FF19C4H   LINE      CODE     ---       #166
      00FF19C5H   LINE      CODE     ---       #169
L251 LINKER/LOCATER V4.66.93.0                                                        08/29/2024  10:02:11  PAGE 15


      00FF19C5H   LINE      CODE     ---       #171
      00FF19D0H   LINE      CODE     ---       #172
      00FF19D1H   LINE      CODE     ---       #175
      00FF19DDH   LINE      CODE     ---       #176
      00FF19E9H   LINE      CODE     ---       #178
      00FF19E9H   LINE      CODE     ---       #180
      00FF19F4H   LINE      CODE     ---       #183
      00FF19F5H   LINE      CODE     ---       #186
      00FF1A00H   LINE      CODE     ---       #187
      00FF1A00H   LINE      CODE     ---       #190
      ---         BLOCKEND  ---      ---       LVL=0
      R11         REGSYM    ---      BYTE      id
      R10         REGSYM    ---      BYTE      st

      00FF1CFCH   BLOCK     CODE     ---       LVL=0
      R1          REGSYM    ---      BYTE      id
      00FF1CFEH   BLOCK     CODE     NEAR LAB  LVL=1
      00000272H   SYMBOL    EDATA    ---       OutTimer
      ---         BLOCKEND  ---      ---       LVL=1
      00FF1CFCH   LINE      CODE     ---       #229
      00FF1CFEH   LINE      CODE     ---       #230
      00FF1CFEH   LINE      CODE     ---       #233
      00FF1D17H   LINE      CODE     ---       #235
      00FF1D21H   LINE      CODE     ---       #236
      00FF1D2AH   LINE      CODE     ---       #238
      00FF1D2EH   LINE      CODE     ---       #239
      00FF1D30H   LINE      CODE     ---       #242
      00FF1D38H   LINE      CODE     ---       #243
      00FF1D38H   LINE      CODE     ---       #244
      ---         BLOCKEND  ---      ---       LVL=0

      00FF1F45H   BLOCK     CODE     ---       LVL=0
      00FF1F47H   BLOCK     CODE     NEAR LAB  LVL=1
      R15         REGSYM    ---      BYTE      i
      ---         BLOCKEND  ---      ---       LVL=1
      00FF1F45H   LINE      CODE     ---       #262
      00FF1F47H   LINE      CODE     ---       #263
      00FF1F47H   LINE      CODE     ---       #265
      00FF1F49H   LINE      CODE     ---       #267
      00FF1F54H   LINE      CODE     ---       #269
      00FF1F59H   LINE      CODE     ---       #270
      00FF1F5BH   LINE      CODE     ---       #273
      00FF1F62H   LINE      CODE     ---       #274
      00FF1F62H   LINE      CODE     ---       #275
      00FF1F69H   LINE      CODE     ---       #289
      ---         BLOCKEND  ---      ---       LVL=0

      00FF20E4H   BLOCK     CODE     ---       LVL=0
      00FF20E4H   LINE      CODE     ---       #291
      00FF20E4H   LINE      CODE     ---       #293
      00FF20E7H   LINE      CODE     ---       #294
      00FF20EAH   LINE      CODE     ---       #295
      00FF20EDH   LINE      CODE     ---       #296
      00FF20F0H   LINE      CODE     ---       #297
      00FF20F3H   LINE      CODE     ---       #298
      00FF20F6H   LINE      CODE     ---       #300
      00FF20F9H   LINE      CODE     ---       #301
      00FF20FCH   LINE      CODE     ---       #303
      00FF20FCH   LINE      CODE     ---       #306
      ---         BLOCKEND  ---      ---       LVL=0

      00FF206AH   BLOCK     CODE     ---       LVL=0
      00FF206AH   LINE      CODE     ---       #318
      00FF206AH   LINE      CODE     ---       #323
      00FF206DH   LINE      CODE     ---       #324
L251 LINKER/LOCATER V4.66.93.0                                                        08/29/2024  10:02:11  PAGE 16


      00FF2070H   LINE      CODE     ---       #325
      00FF2073H   LINE      CODE     ---       #327
      00FF2076H   LINE      CODE     ---       #328
      00FF2079H   LINE      CODE     ---       #332
      00FF207CH   LINE      CODE     ---       #334
      00FF207FH   LINE      CODE     ---       #335
      00FF2082H   LINE      CODE     ---       #336
      00FF2085H   LINE      CODE     ---       #337
      00FF2088H   LINE      CODE     ---       #339
      ---         BLOCKEND  ---      ---       LVL=0

      00FF18B3H   BLOCK     CODE     ---       LVL=0
      0000027EH   SYMBOL    EDATA    BYTE      PwrHis
      0000027FH   SYMBOL    EDATA    BYTE      StHis
      R11         REGSYM    ---      BYTE      s
      R11         REGSYM    ---      BYTE      key
      00FF18B3H   LINE      CODE     ---       #343
      00FF18B3H   LINE      CODE     ---       #344
      00FF18B3H   LINE      CODE     ---       #351
      00FF18B6H   LINE      CODE     ---       #352
      00FF18B9H   LINE      CODE     ---       #357
      00FF18BFH   LINE      CODE     ---       #358
      00FF18BFH   LINE      CODE     ---       #361
      00FF18C6H   LINE      CODE     ---       #362
      00FF18CFH   LINE      CODE     ---       #364
      00FF18D7H   LINE      CODE     ---       #365
      00FF18DAH   LINE      CODE     ---       #367
      00FF18DFH   LINE      CODE     ---       #369
      00FF18E5H   LINE      CODE     ---       #372
      00FF18EBH   LINE      CODE     ---       #373
      00FF18EDH   LINE      CODE     ---       #376
      00FF18F0H   LINE      CODE     ---       #377
      00FF18F6H   LINE      CODE     ---       #378
      00FF18FCH   LINE      CODE     ---       #379
      00FF18FCH   LINE      CODE     ---       #380
      00FF18FCH   LINE      CODE     ---       #396
      00FF1900H   LINE      CODE     ---       #397
      00FF1900H   LINE      CODE     ---       #401
      00FF1907H   LINE      CODE     ---       #403
      00FF191BH   LINE      CODE     ---       #405
      00FF1921H   LINE      CODE     ---       #407
      00FF1924H   LINE      CODE     ---       #408
      00FF1924H   LINE      CODE     ---       #410
      ---         BLOCKEND  ---      ---       LVL=0

      00FF1DB1H   BLOCK     CODE     ---       LVL=0
      00000280H   SYMBOL    EDATA    BYTE      key_pressed
      00FF1DB1H   LINE      CODE     ---       #412
      00FF1DB1H   LINE      CODE     ---       #413
      00FF1DB1H   LINE      CODE     ---       #417
      00FF1DBBH   LINE      CODE     ---       #419
      00FF1DC2H   LINE      CODE     ---       #421
      00FF1DC4H   LINE      CODE     ---       #422
      00FF1DC4H   LINE      CODE     ---       #424
      00FF1DCBH   LINE      CODE     ---       #425
      00FF1DD5H   LINE      CODE     ---       #427
      00FF1DDBH   LINE      CODE     ---       #428
      00FF1DDEH   LINE      CODE     ---       #429
      00FF1DDEH   LINE      CODE     ---       #433
      00FF1DE3H   LINE      CODE     ---       #434
      00FF1DE3H   LINE      CODE     ---       #436
      00FF1DE4H   LINE      CODE     ---       #437
      ---         BLOCKEND  ---      ---       LVL=0

      00FF1E75H   BLOCK     CODE     ---       LVL=0
L251 LINKER/LOCATER V4.66.93.0                                                        08/29/2024  10:02:11  PAGE 17


      00FF1E77H   BLOCK     CODE     NEAR LAB  LVL=1
      00000281H   SYMBOL    EDATA    BYTE      his
      R15         REGSYM    ---      BYTE      st
      ---         BLOCKEND  ---      ---       LVL=1
      00FF1E75H   LINE      CODE     ---       #440
      00FF1E77H   LINE      CODE     ---       #441
      00FF1E77H   LINE      CODE     ---       #444
      00FF1E7DH   LINE      CODE     ---       #448
      00FF1E85H   LINE      CODE     ---       #450
      00FF1E8CH   LINE      CODE     ---       #454
      00FF1E94H   LINE      CODE     ---       #456
      00FF1E98H   LINE      CODE     ---       #457
      00FF1E9CH   LINE      CODE     ---       #458
      00FF1E9CH   LINE      CODE     ---       #461
      00FF1E9EH   LINE      CODE     ---       #462
      ---         BLOCKEND  ---      ---       LVL=0
      REG=3       REGSYM    ---      ---       pata

      00FF0003H   BLOCK     CODE     ---       LVL=0
      00FF0003H   LINE      CODE     ---       #475
      00FF0003H   LINE      CODE     ---       #480
      ---         BLOCKEND  ---      ---       LVL=0

      00FF1B79H   BLOCK     CODE     ---       LVL=0
      000001C1H   SYMBOL    EDATA    BYTE      PwOff
      00FF1B79H   LINE      CODE     ---       #482
      00FF1B79H   LINE      CODE     ---       #483
      00FF1B79H   LINE      CODE     ---       #484
      00FF1B7FH   LINE      CODE     ---       #486
      00FF1B89H   LINE      CODE     ---       #488
      00FF1B8FH   LINE      CODE     ---       #490
      00FF1B94H   LINE      CODE     ---       #491
      00FF1B9BH   LINE      CODE     ---       #492
      00FF1B9DH   LINE      CODE     ---       #493
      00FF1B9DH   LINE      CODE     ---       #495
      00FF1BA3H   LINE      CODE     ---       #497
      00FF1BA8H   LINE      CODE     ---       #498
      00FF1BB2H   LINE      CODE     ---       #499
      00FF1BB4H   LINE      CODE     ---       #500
      00FF1BB4H   LINE      CODE     ---       #502
      00FF1BBAH   LINE      CODE     ---       #504
      00FF1BBFH   LINE      CODE     ---       #505
      00FF1BCCH   LINE      CODE     ---       #506
      00FF1BCCH   LINE      CODE     ---       #508
      ---         BLOCKEND  ---      ---       LVL=0

      00FF1746H   BLOCK     CODE     ---       LVL=0
      00FF1746H   LINE      CODE     ---       #511
      00FF1746H   LINE      CODE     ---       #513
      00FF1749H   LINE      CODE     ---       #514
      00FF174CH   LINE      CODE     ---       #515
      00FF174FH   LINE      CODE     ---       #516
      00FF1752H   LINE      CODE     ---       #517
      00FF1755H   LINE      CODE     ---       #519
      00FF175CH   LINE      CODE     ---       #521
      00FF175FH   LINE      CODE     ---       #522
      00FF1766H   LINE      CODE     ---       #524
      00FF1769H   LINE      CODE     ---       #525
      00FF1770H   LINE      CODE     ---       #527
      00FF1773H   LINE      CODE     ---       #528
      00FF177AH   LINE      CODE     ---       #531
      00FF1781H   LINE      CODE     ---       #533
      00FF1791H   LINE      CODE     ---       #534
      00FF1798H   LINE      CODE     ---       #536
      00FF179BH   LINE      CODE     ---       #537
L251 LINKER/LOCATER V4.66.93.0                                                        08/29/2024  10:02:11  PAGE 18


      00FF179DH   LINE      CODE     ---       #539
      00FF17A0H   LINE      CODE     ---       #540
      00FF17A7H   LINE      CODE     ---       #541
      00FF17AEH   LINE      CODE     ---       #542
      00FF17B5H   LINE      CODE     ---       #544
      00FF17B5H   LINE      CODE     ---       #546
      00FF17B8H   LINE      CODE     ---       #547
      00FF17BBH   LINE      CODE     ---       #548
      00FF17BEH   LINE      CODE     ---       #549
      00FF17C1H   LINE      CODE     ---       #550
      ---         BLOCKEND  ---      ---       LVL=0

      ---         MODULE    ---      ---       uart
      00FF1F92H   PUBLIC    CODE     ---       Clear_Uart1_Buf
      00FF1FB7H   PUBLIC    CODE     ---       Clear_Uart2_Buf
      00FF1A67H   PUBLIC    CODE     ---       UART1_ISR
      00FF1A01H   PUBLIC    CODE     ---       UART2_ISR
      00FF1CB9H   PUBLIC    CODE     ---       Uart1_Init
      00FF1D39H   PUBLIC    CODE     ---       Uart2_Init
      00FF2089H   PUBLIC    CODE     ---       Uart1Send
      00FF20A8H   PUBLIC    CODE     ---       Uart2Send
      00FF212FH   PUBLIC    CODE     ---       Uart1Hnd
      00FF000EH   PUBLIC    CODE     ---       putchar
      00000020H.0 PUBLIC    BIT      BIT       B_TX1_Busy
      00000020H.1 PUBLIC    BIT      BIT       B_TX2_Busy
      00000020H.2 PUBLIC    BIT      BIT       B_TX3_Busy
      00000020H.3 PUBLIC    BIT      BIT       B_TX4_Busy
      00000021H   PUBLIC    EDATA    ---       RX1_Buffer
      000000E9H   PUBLIC    EDATA    ---       RX4_Buffer
      000001B1H   PUBLIC    EDATA    WORD      Rx1_Timer
      000001B3H   PUBLIC    EDATA    WORD      Rx2_Timer
      000001B5H   PUBLIC    EDATA    WORD      Rx3_Timer
      000001B7H   PUBLIC    EDATA    BYTE      RX1_Cnt
      000001B8H   PUBLIC    EDATA    WORD      Rx4_Timer
      000001BAH   PUBLIC    EDATA    BYTE      RX2_Cnt
      000001BBH   PUBLIC    EDATA    BYTE      RX3_Cnt
      000001BCH   PUBLIC    EDATA    BYTE      TX1_Cnt
      000001BDH   PUBLIC    EDATA    BYTE      RX4_Cnt
      000001BEH   PUBLIC    EDATA    BYTE      TX2_Cnt
      000001BFH   PUBLIC    EDATA    BYTE      TX3_Cnt
      000001C0H   PUBLIC    EDATA    BYTE      TX4_Cnt
      00010000H   PUBLIC    XDATA    ---       RX2_Buffer
      000100C8H   PUBLIC    XDATA    ---       RX3_Buffer
      00010190H   PUBLIC    XDATA    ---       g_UartData
      000000D0H   SFRSYM    DATA     BYTE      PSW
      0000009DH   SFRSYM    DATA     BYTE      IRCBAND
      00000097H   SFRSYM    DATA     BYTE      AUXR2
      0000009AH.4 SFRSYM    DATA     BIT       S2REN
      000000B7H.4 SFRSYM    DATA     BIT       PSH
      000000EFH   SFRSYM    DATA     BYTE      AUXINTIF
      000000FDH   SFRSYM    DATA     BYTE      S4CON
      000000ACH   SFRSYM    DATA     BYTE      S3CON
      0000009AH   SFRSYM    DATA     BYTE      S2CON
      00000098H.4 SFRSYM    DATA     BIT       REN
      0000009BH   SFRSYM    DATA     BYTE      S2BUF
      0000008EH.2 SFRSYM    DATA     BIT       T2x12
      000000B7H   SFRSYM    DATA     BYTE      IPH
      000000CDH   SFRSYM    DATA     BYTE      SPSTAT
      000000DDH   SFRSYM    DATA     BYTE      T4T3M
      0000008EH.4 SFRSYM    DATA     BIT       T2R
      000000C1H   SFRSYM    DATA     BYTE      WDT_CONTR
      00000088H.6 SFRSYM    DATA     BIT       TR1
      000000B5H.0 SFRSYM    DATA     BIT       PS2
      000000D7H   SFRSYM    DATA     BYTE      T2L
      0000008BH   SFRSYM    DATA     BYTE      TL1
L251 LINKER/LOCATER V4.66.93.0                                                        08/29/2024  10:02:11  PAGE 19


      000000D6H   SFRSYM    DATA     BYTE      T2H
      0000008DH   SFRSYM    DATA     BYTE      TH1
      000000DFH   SFRSYM    DATA     BYTE      IP3
      000000F4H   SFRSYM    DATA     BYTE      USBCON
      000000AFH.2 SFRSYM    DATA     BIT       ET2
      000000B5H   SFRSYM    DATA     BYTE      IP2
      000000FFH   SFRSYM    DATA     BYTE      RSTCFG
      000000A8H.3 SFRSYM    DATA     BIT       ET1
      000000AFH.0 SFRSYM    DATA     BIT       ES2
      000000C7H   SFRSYM    DATA     BYTE      IAP_CONTR
      000000F9H   SFRSYM    DATA     BYTE      LINICR
      0000008EH   SFRSYM    DATA     BYTE      AUXR
      000000AFH   SFRSYM    DATA     BYTE      IE2
      00000088H   SFRSYM    DATA     BYTE      TCON
      00000089H   SFRSYM    DATA     BYTE      TMOD
      00000098H   SFRSYM    DATA     BYTE      SCON
      000000F1H   SFRSYM    DATA     BYTE      CANICR
      00000087H   SFRSYM    DATA     BYTE      PCON
      00000099H   SFRSYM    DATA     BYTE      SBUF
      000000BCH   SFRSYM    DATA     BYTE      ADC_CONTR
      000000E7H   SFRSYM    DATA     BYTE      CMPCR2
      000000E6H   SFRSYM    DATA     BYTE      CMPCR1
      0000009AH.1 SFRSYM    DATA     BIT       S2TI
      000000B8H.4 SFRSYM    DATA     BIT       PS
      0000009AH.0 SFRSYM    DATA     BIT       S2RI
      000000B6H.0 SFRSYM    DATA     BIT       PS2H
      00000098H.1 SFRSYM    DATA     BIT       TI
      00000098H.0 SFRSYM    DATA     BIT       RI
      000000DEH   SFRSYM    DATA     BYTE      ADCCFG
      000000B8H   SFRSYM    DATA     BYTE      IP
      000000A8H.4 SFRSYM    DATA     BIT       ES
      0000008FH   SFRSYM    DATA     BYTE      INTCLKO
      000000EEH   SFRSYM    DATA     BYTE      IP3H
      000000B6H   SFRSYM    DATA     BYTE      IP2H
      000000A8H   SFRSYM    DATA     BYTE      IE
      000000BBH   SFRSYM    DATA     BYTE      P_SW3
      000000BAH   SFRSYM    DATA     BYTE      P_SW2
      000000A2H   SFRSYM    DATA     BYTE      P_SW1
      000000CEH   SFRSYM    DATA     BYTE      SPCTL
      000000F8H   SFRSYM    DATA     BYTE      P7
      000000E8H   SFRSYM    DATA     BYTE      P6
      000000C8H   SFRSYM    DATA     BYTE      P5
      000000C0H   SFRSYM    DATA     BYTE      P4
      000000B0H   SFRSYM    DATA     BYTE      P3
      000000A0H   SFRSYM    DATA     BYTE      P2
      00000090H   SFRSYM    DATA     BYTE      P1
      00000080H   SFRSYM    DATA     BYTE      P0

      00FF1CB9H   BLOCK     CODE     ---       LVL=0
      00FF1CB9H   LINE      CODE     ---       #36
      00FF1CB9H   LINE      CODE     ---       #39
      00FF1CBBH   LINE      CODE     ---       #40
      00FF1CBEH   LINE      CODE     ---       #41
      00FF1CC1H   LINE      CODE     ---       #42
      00FF1CC4H   LINE      CODE     ---       #43
      00FF1CC7H   LINE      CODE     ---       #44
      00FF1CCAH   LINE      CODE     ---       #45
      00FF1CCDH   LINE      CODE     ---       #46
      00FF1CCFH   LINE      CODE     ---       #47
      00FF1CD2H   LINE      CODE     ---       #48
      00FF1CD4H   LINE      CODE     ---       #54
      00FF1CDCH   LINE      CODE     ---       #56
      00FF1CDEH   LINE      CODE     ---       #57
      00FF1CE1H   LINE      CODE     ---       #59
      00FF1CE3H   LINE      CODE     ---       #60
L251 LINKER/LOCATER V4.66.93.0                                                        08/29/2024  10:02:11  PAGE 20


      00FF1CE5H   LINE      CODE     ---       #64
      00FF1CE8H   LINE      CODE     ---       #65
      00FF1CEBH   LINE      CODE     ---       #67
      00FF1CEDH   LINE      CODE     ---       #68
      00FF1CF5H   LINE      CODE     ---       #69
      00FF1CFBH   LINE      CODE     ---       #72
      ---         BLOCKEND  ---      ---       LVL=0

      00FF1D39H   BLOCK     CODE     ---       LVL=0
      00FF1D39H   LINE      CODE     ---       #74
      00FF1D39H   LINE      CODE     ---       #76
      00FF1D3CH   LINE      CODE     ---       #77
      00FF1D3FH   LINE      CODE     ---       #78
      00FF1D42H   LINE      CODE     ---       #79
      00FF1D45H   LINE      CODE     ---       #80
      00FF1D48H   LINE      CODE     ---       #81
      00FF1D4BH   LINE      CODE     ---       #82
      00FF1D4EH   LINE      CODE     ---       #84
      00FF1D56H   LINE      CODE     ---       #86
      00FF1D59H   LINE      CODE     ---       #87
      00FF1D5CH   LINE      CODE     ---       #89
      00FF1D5FH   LINE      CODE     ---       #90
      00FF1D62H   LINE      CODE     ---       #91
      00FF1D65H   LINE      CODE     ---       #93
      00FF1D67H   LINE      CODE     ---       #94
      00FF1D6FH   LINE      CODE     ---       #95
      00FF1D75H   LINE      CODE     ---       #97
      ---         BLOCKEND  ---      ---       LVL=0

      00FF000EH   BLOCK     CODE     ---       LVL=0
      R10         REGSYM    ---      CHAR      c
      00FF000EH   LINE      CODE     ---       #100
      00FF0010H   LINE      CODE     ---       #102
      00FF0013H   LINE      CODE     ---       #103
      00FF0016H   LINE      CODE     ---       #104
      00FF0018H   LINE      CODE     ---       #105
      00FF001AH   LINE      CODE     ---       #106
      ---         BLOCKEND  ---      ---       LVL=0

      00FF1A67H   BLOCK     CODE     ---       LVL=0
      00FF1A67H   LINE      CODE     ---       #109
      00FF1A7DH   LINE      CODE     ---       #111
      00FF1A80H   LINE      CODE     ---       #113
      00FF1A82H   LINE      CODE     ---       #114
      00FF1A9CH   LINE      CODE     ---       #117
      00FF1AA8H   LINE      CODE     ---       #119
      00FF1AABH   LINE      CODE     ---       #120
      00FF1AABH   LINE      CODE     ---       #123
      00FF1AAEH   LINE      CODE     ---       #125
      00FF1AB0H   LINE      CODE     ---       #126
      00FF1AB2H   LINE      CODE     ---       #127
      ---         BLOCKEND  ---      ---       LVL=0

      00FF1A01H   BLOCK     CODE     ---       LVL=0
      00FF1A01H   LINE      CODE     ---       #132
      00FF1A17H   LINE      CODE     ---       #134
      00FF1A1BH   LINE      CODE     ---       #136
      00FF1A1EH   LINE      CODE     ---       #137
      00FF1A38H   LINE      CODE     ---       #140
      00FF1A44H   LINE      CODE     ---       #142
      00FF1A47H   LINE      CODE     ---       #143
      00FF1A47H   LINE      CODE     ---       #146
      00FF1A4BH   LINE      CODE     ---       #148
      00FF1A4EH   LINE      CODE     ---       #149
      00FF1A50H   LINE      CODE     ---       #150
L251 LINKER/LOCATER V4.66.93.0                                                        08/29/2024  10:02:11  PAGE 21


      ---         BLOCKEND  ---      ---       LVL=0
      R11         REGSYM    ---      CHAR      dat
      REG=3       REGSYM    ---      ---       s

      00FF2089H   BLOCK     CODE     ---       LVL=0
      REG=7       REGSYM    ---      ---       buf
      R10         REGSYM    ---      BYTE      len
      00FF208DH   BLOCK     CODE     NEAR LAB  LVL=1
      R7          REGSYM    ---      BYTE      i
      ---         BLOCKEND  ---      ---       LVL=1
      00FF2089H   LINE      CODE     ---       #174
      00FF208DH   LINE      CODE     ---       #175
      00FF208DH   LINE      CODE     ---       #177
      00FF2091H   LINE      CODE     ---       #179
      00FF209CH   LINE      CODE     ---       #180
      00FF209EH   LINE      CODE     ---       #181
      00FF20A1H   LINE      CODE     ---       #182
      00FF20A7H   LINE      CODE     ---       #183
      ---         BLOCKEND  ---      ---       LVL=0

      00FF20A8H   BLOCK     CODE     ---       LVL=0
      REG=7       REGSYM    ---      ---       buf
      R10         REGSYM    ---      BYTE      len
      00FF20ACH   BLOCK     CODE     NEAR LAB  LVL=1
      R7          REGSYM    ---      BYTE      i
      ---         BLOCKEND  ---      ---       LVL=1
      00FF20A8H   LINE      CODE     ---       #185
      00FF20ACH   LINE      CODE     ---       #186
      00FF20ACH   LINE      CODE     ---       #188
      00FF20B0H   LINE      CODE     ---       #190
      00FF20BBH   LINE      CODE     ---       #191
      00FF20BDH   LINE      CODE     ---       #192
      00FF20C0H   LINE      CODE     ---       #193
      00FF20C6H   LINE      CODE     ---       #194
      ---         BLOCKEND  ---      ---       LVL=0

      00FF1F92H   BLOCK     CODE     ---       LVL=0
      00FF1F92H   LINE      CODE     ---       #197
      00FF1F92H   LINE      CODE     ---       #199
      00FF1FA2H   LINE      CODE     ---       #200
      00FF1FAAH   LINE      CODE     ---       #201
      00FF1FB6H   LINE      CODE     ---       #202
      ---         BLOCKEND  ---      ---       LVL=0

      00FF1FB7H   BLOCK     CODE     ---       LVL=0
      00FF1FB7H   LINE      CODE     ---       #218
      00FF1FB7H   LINE      CODE     ---       #220
      00FF1FC7H   LINE      CODE     ---       #221
      00FF1FCFH   LINE      CODE     ---       #222
      00FF1FDBH   LINE      CODE     ---       #223
      ---         BLOCKEND  ---      ---       LVL=0

      00FF212FH   BLOCK     CODE     ---       LVL=0
      00FF212FH   LINE      CODE     ---       #226
      00FF212FH   LINE      CODE     ---       #228
      00FF213FH   LINE      CODE     ---       #230
      00FF2142H   LINE      CODE     ---       #232
      ---         BLOCKEND  ---      ---       LVL=0
      R11         REGSYM    ---      BYTE      ret

      ---         MODULE    ---      ---       time
      00FF13FDH   PUBLIC    CODE     ---       TimerTask
      00FF2157H   PUBLIC    CODE     ---       Timer0ISR
      00FF216AH   PUBLIC    CODE     ---       Timer1ISR
      00FF217DH   PUBLIC    CODE     ---       Timer0_Init
L251 LINKER/LOCATER V4.66.93.0                                                        08/29/2024  10:02:11  PAGE 22


      00FF2118H   PUBLIC    CODE     ---       delay_ms
      00FF21A0H   PUBLIC    CODE     ---       delay_us
      00000008H   PUBLIC    EDATA    WORD      Time1s
      0000000AH   PUBLIC    EDATA    WORD      Timer0Cnt
      0000000CH   PUBLIC    EDATA    WORD      Timer1Cnt
      000000D0H   SFRSYM    DATA     BYTE      PSW
      0000009DH   SFRSYM    DATA     BYTE      IRCBAND
      00000097H   SFRSYM    DATA     BYTE      AUXR2
      000000EFH   SFRSYM    DATA     BYTE      AUXINTIF
      000000FDH   SFRSYM    DATA     BYTE      S4CON
      000000ACH   SFRSYM    DATA     BYTE      S3CON
      0000009AH   SFRSYM    DATA     BYTE      S2CON
      000000B7H   SFRSYM    DATA     BYTE      IPH
      000000CDH   SFRSYM    DATA     BYTE      SPSTAT
      000000DDH   SFRSYM    DATA     BYTE      T4T3M
      000000C1H   SFRSYM    DATA     BYTE      WDT_CONTR
      00000088H.6 SFRSYM    DATA     BIT       TR1
      00000088H.4 SFRSYM    DATA     BIT       TR0
      000000B8H.1 SFRSYM    DATA     BIT       PT0
      0000008BH   SFRSYM    DATA     BYTE      TL1
      0000008AH   SFRSYM    DATA     BYTE      TL0
      0000008DH   SFRSYM    DATA     BYTE      TH1
      0000008CH   SFRSYM    DATA     BYTE      TH0
      000000DFH   SFRSYM    DATA     BYTE      IP3
      000000F4H   SFRSYM    DATA     BYTE      USBCON
      000000B5H   SFRSYM    DATA     BYTE      IP2
      000000FFH   SFRSYM    DATA     BYTE      RSTCFG
      000000A8H.1 SFRSYM    DATA     BIT       ET0
      000000C7H   SFRSYM    DATA     BYTE      IAP_CONTR
      000000F9H   SFRSYM    DATA     BYTE      LINICR
      0000008EH   SFRSYM    DATA     BYTE      AUXR
      000000AFH   SFRSYM    DATA     BYTE      IE2
      00000088H   SFRSYM    DATA     BYTE      TCON
      00000089H   SFRSYM    DATA     BYTE      TMOD
      00000098H   SFRSYM    DATA     BYTE      SCON
      000000C1H.4 SFRSYM    DATA     BIT       CLR_WDT
      000000F1H   SFRSYM    DATA     BYTE      CANICR
      00000087H   SFRSYM    DATA     BYTE      PCON
      000000BCH   SFRSYM    DATA     BYTE      ADC_CONTR
      000000E7H   SFRSYM    DATA     BYTE      CMPCR2
      000000E6H   SFRSYM    DATA     BYTE      CMPCR1
      000000B7H.1 SFRSYM    DATA     BIT       PT0H
      000000DEH   SFRSYM    DATA     BYTE      ADCCFG
      000000B8H   SFRSYM    DATA     BYTE      IP
      0000008FH   SFRSYM    DATA     BYTE      INTCLKO
      000000EEH   SFRSYM    DATA     BYTE      IP3H
      000000B6H   SFRSYM    DATA     BYTE      IP2H
      000000A8H   SFRSYM    DATA     BYTE      IE
      000000BBH   SFRSYM    DATA     BYTE      P_SW3
      000000BAH   SFRSYM    DATA     BYTE      P_SW2
      000000A2H   SFRSYM    DATA     BYTE      P_SW1
      000000CEH   SFRSYM    DATA     BYTE      SPCTL
      000000F8H   SFRSYM    DATA     BYTE      P7
      000000E8H   SFRSYM    DATA     BYTE      P6
      000000C8H   SFRSYM    DATA     BYTE      P5
      000000C0H   SFRSYM    DATA     BYTE      P4
      000000B0H   SFRSYM    DATA     BYTE      P3
      000000A0H   SFRSYM    DATA     BYTE      P2
      00000090H   SFRSYM    DATA     BYTE      P1
      00000080H   SFRSYM    DATA     BYTE      P0

      00FF217DH   BLOCK     CODE     ---       LVL=0
      00FF217DH   LINE      CODE     ---       #9
      00FF217DH   LINE      CODE     ---       #11
      00FF2180H   LINE      CODE     ---       #12
L251 LINKER/LOCATER V4.66.93.0                                                        08/29/2024  10:02:11  PAGE 23


      00FF2183H   LINE      CODE     ---       #13
      00FF2186H   LINE      CODE     ---       #14
      00FF2188H   LINE      CODE     ---       #15
      00FF218AH   LINE      CODE     ---       #18
      00FF218CH   LINE      CODE     ---       #19
      00FF218FH   LINE      CODE     ---       #22
      ---         BLOCKEND  ---      ---       LVL=0

      00FF2157H   BLOCK     CODE     ---       LVL=0
      00FF2157H   LINE      CODE     ---       #25
      00FF215BH   LINE      CODE     ---       #27
      00FF2165H   LINE      CODE     ---       #28
      ---         BLOCKEND  ---      ---       LVL=0

      00FF216AH   BLOCK     CODE     ---       LVL=0
      00FF216AH   LINE      CODE     ---       #45
      00FF216EH   LINE      CODE     ---       #47
      00FF2178H   LINE      CODE     ---       #48
      ---         BLOCKEND  ---      ---       LVL=0

      00FF21A0H   BLOCK     CODE     ---       LVL=0
      R7          REGSYM    ---      BYTE      us
      00FF21A0H   LINE      CODE     ---       #50
      00FF21A2H   LINE      CODE     ---       #52
      00FF21A2H   LINE      CODE     ---       #55
      00FF21AAH   LINE      CODE     ---       #56
      ---         BLOCKEND  ---      ---       LVL=0

      00FF2118H   BLOCK     CODE     ---       LVL=0
      WR4         REGSYM    ---      WORD      ms
      00FF211AH   BLOCK     CODE     NEAR LAB  LVL=1
      WR6         REGSYM    ---      WORD      i
      ---         BLOCKEND  ---      ---       LVL=1
      00FF2118H   LINE      CODE     ---       #58
      00FF211AH   LINE      CODE     ---       #59
      00FF211AH   LINE      CODE     ---       #61
      00FF211AH   LINE      CODE     ---       #62
      00FF211EH   LINE      CODE     ---       #63
      00FF2126H   LINE      CODE     ---       #64
      00FF212EH   LINE      CODE     ---       #65
      ---         BLOCKEND  ---      ---       LVL=0
      WR6         REGSYM    ---      WORD      ms

      00FF13FDH   BLOCK     CODE     ---       LVL=0
      00FF13FFH   BLOCK     CODE     NEAR LAB  LVL=1
      WR14        REGSYM    ---      WORD      delta
      0000000EH   SYMBOL    EDATA    WORD      Time1s
      R5          REGSYM    ---      BYTE      i
      ---         BLOCKEND  ---      ---       LVL=1
      00FF13FDH   LINE      CODE     ---       #76
      00FF13FFH   LINE      CODE     ---       #77
      00FF13FFH   LINE      CODE     ---       #78
      00FF1401H   LINE      CODE     ---       #81
      00FF140CH   LINE      CODE     ---       #83
      00FF1412H   LINE      CODE     ---       #84
      00FF1416H   LINE      CODE     ---       #86
      00FF141FH   LINE      CODE     ---       #88
      00FF1429H   LINE      CODE     ---       #89
      00FF1429H   LINE      CODE     ---       #90
      00FF1432H   LINE      CODE     ---       #92
      00FF143CH   LINE      CODE     ---       #93
      00FF143CH   LINE      CODE     ---       #95
      00FF144AH   LINE      CODE     ---       #97
      00FF1454H   LINE      CODE     ---       #99
      00FF145EH   LINE      CODE     ---       #100
L251 LINKER/LOCATER V4.66.93.0                                                        08/29/2024  10:02:11  PAGE 24


      00FF145EH   LINE      CODE     ---       #102
      00FF1460H   LINE      CODE     ---       #104
      00FF147DH   LINE      CODE     ---       #106
      00FF14A1H   LINE      CODE     ---       #107
      00FF14A7H   LINE      CODE     ---       #110
      00FF14B1H   LINE      CODE     ---       #111
      00FF14B7H   LINE      CODE     ---       #113
      00FF14BAH   LINE      CODE     ---       #114
      00FF14BEH   LINE      CODE     ---       #115
      00FF14C1H   LINE      CODE     ---       #116
      00FF14C1H   LINE      CODE     ---       #117
      00FF14CBH   LINE      CODE     ---       #119
      00FF14D0H   LINE      CODE     ---       #120
      00FF14D3H   LINE      CODE     ---       #121
      ---         BLOCKEND  ---      ---       LVL=0

      ---         MODULE    ---      ---       i2c
      000000D0H   SFRSYM    DATA     BYTE      PSW
      0000009DH   SFRSYM    DATA     BYTE      IRCBAND
      00000097H   SFRSYM    DATA     BYTE      AUXR2
      000000EFH   SFRSYM    DATA     BYTE      AUXINTIF
      000000FDH   SFRSYM    DATA     BYTE      S4CON
      000000ACH   SFRSYM    DATA     BYTE      S3CON
      0000009AH   SFRSYM    DATA     BYTE      S2CON
      000000B7H   SFRSYM    DATA     BYTE      IPH
      000000CDH   SFRSYM    DATA     BYTE      SPSTAT
      000000DDH   SFRSYM    DATA     BYTE      T4T3M
      000000C1H   SFRSYM    DATA     BYTE      WDT_CONTR
      000000DFH   SFRSYM    DATA     BYTE      IP3
      000000F4H   SFRSYM    DATA     BYTE      USBCON
      000000B5H   SFRSYM    DATA     BYTE      IP2
      000000FFH   SFRSYM    DATA     BYTE      RSTCFG
      000000C7H   SFRSYM    DATA     BYTE      IAP_CONTR
      000000F9H   SFRSYM    DATA     BYTE      LINICR
      0000008EH   SFRSYM    DATA     BYTE      AUXR
      000000AFH   SFRSYM    DATA     BYTE      IE2
      00000088H   SFRSYM    DATA     BYTE      TCON
      00000089H   SFRSYM    DATA     BYTE      TMOD
      00000098H   SFRSYM    DATA     BYTE      SCON
      000000F1H   SFRSYM    DATA     BYTE      CANICR
      00000087H   SFRSYM    DATA     BYTE      PCON
      000000BCH   SFRSYM    DATA     BYTE      ADC_CONTR
      000000E7H   SFRSYM    DATA     BYTE      CMPCR2
      000000E6H   SFRSYM    DATA     BYTE      CMPCR1
      000000DEH   SFRSYM    DATA     BYTE      ADCCFG
      000000B8H   SFRSYM    DATA     BYTE      IP
      0000008FH   SFRSYM    DATA     BYTE      INTCLKO
      000000EEH   SFRSYM    DATA     BYTE      IP3H
      000000B6H   SFRSYM    DATA     BYTE      IP2H
      000000A8H   SFRSYM    DATA     BYTE      IE
      000000BBH   SFRSYM    DATA     BYTE      P_SW3
      000000BAH   SFRSYM    DATA     BYTE      P_SW2
      000000A2H   SFRSYM    DATA     BYTE      P_SW1
      000000CEH   SFRSYM    DATA     BYTE      SPCTL
      000000F8H   SFRSYM    DATA     BYTE      P7
      000000E8H   SFRSYM    DATA     BYTE      P6
      000000C8H   SFRSYM    DATA     BYTE      P5
      000000C0H   SFRSYM    DATA     BYTE      P4
      000000B0H   SFRSYM    DATA     BYTE      P3
      000000A0H   SFRSYM    DATA     BYTE      P2
      00000090H   SFRSYM    DATA     BYTE      P1
      00000080H   SFRSYM    DATA     BYTE      P0

      ---         MODULE    ---      ---       mcp4725
      00FF0E55H   PUBLIC    CODE     ---       MCP4725_OutVol
L251 LINKER/LOCATER V4.66.93.0                                                        08/29/2024  10:02:11  PAGE 25


      000000D0H   SFRSYM    DATA     BYTE      PSW
      0000009DH   SFRSYM    DATA     BYTE      IRCBAND
      00000097H   SFRSYM    DATA     BYTE      AUXR2
      000000EFH   SFRSYM    DATA     BYTE      AUXINTIF
      000000FDH   SFRSYM    DATA     BYTE      S4CON
      000000ACH   SFRSYM    DATA     BYTE      S3CON
      0000009AH   SFRSYM    DATA     BYTE      S2CON
      000000B7H   SFRSYM    DATA     BYTE      IPH
      000000CDH   SFRSYM    DATA     BYTE      SPSTAT
      000000DDH   SFRSYM    DATA     BYTE      T4T3M
      000000C1H   SFRSYM    DATA     BYTE      WDT_CONTR
      000000DFH   SFRSYM    DATA     BYTE      IP3
      000000F4H   SFRSYM    DATA     BYTE      USBCON
      000000B5H   SFRSYM    DATA     BYTE      IP2
      000000FFH   SFRSYM    DATA     BYTE      RSTCFG
      000000C7H   SFRSYM    DATA     BYTE      IAP_CONTR
      000000F9H   SFRSYM    DATA     BYTE      LINICR
      0000008EH   SFRSYM    DATA     BYTE      AUXR
      000000AFH   SFRSYM    DATA     BYTE      IE2
      00000088H   SFRSYM    DATA     BYTE      TCON
      00000089H   SFRSYM    DATA     BYTE      TMOD
      00000098H   SFRSYM    DATA     BYTE      SCON
      000000F1H   SFRSYM    DATA     BYTE      CANICR
      00000087H   SFRSYM    DATA     BYTE      PCON
      000000BCH   SFRSYM    DATA     BYTE      ADC_CONTR
      000000E7H   SFRSYM    DATA     BYTE      CMPCR2
      000000E6H   SFRSYM    DATA     BYTE      CMPCR1
      000000DEH   SFRSYM    DATA     BYTE      ADCCFG
      000000B8H   SFRSYM    DATA     BYTE      IP
      0000008FH   SFRSYM    DATA     BYTE      INTCLKO
      000000EEH   SFRSYM    DATA     BYTE      IP3H
      000000B6H   SFRSYM    DATA     BYTE      IP2H
      000000A8H   SFRSYM    DATA     BYTE      IE
      000000BBH   SFRSYM    DATA     BYTE      P_SW3
      000000BAH   SFRSYM    DATA     BYTE      P_SW2
      000000A2H   SFRSYM    DATA     BYTE      P_SW1
      000000CEH   SFRSYM    DATA     BYTE      SPCTL
      000000F8H   SFRSYM    DATA     BYTE      P7
      000000E8H   SFRSYM    DATA     BYTE      P6
      000000C8H   SFRSYM    DATA     BYTE      P5
      000000C0H   SFRSYM    DATA     BYTE      P4
      000000B0H   SFRSYM    DATA     BYTE      P3
      000000A0H   SFRSYM    DATA     BYTE      P2
      000000B1H   SFRSYM    DATA     BYTE      P3M1
      00000090H   SFRSYM    DATA     BYTE      P1
      000000B2H   SFRSYM    DATA     BYTE      P3M0
      00000080H   SFRSYM    DATA     BYTE      P0

      00FF0E55H   BLOCK     CODE     ---       LVL=0
      R15         REGSYM    ---      BYTE      addr
      WR6         REGSYM    ---      WORD      voltage
      00FF0E59H   BLOCK     CODE     NEAR LAB  LVL=1
      000001C6H   SYMBOL    EDATA    DWORD     uiVolTemp
      R14         REGSYM    ---      BYTE      out_data
      00FF0EA9H   BLOCK     CODE     NEAR LAB  LVL=2
      R15         REGSYM    ---      BYTE      cnt
      ---         BLOCKEND  ---      ---       LVL=2
      00FF0EEDH   BLOCK     CODE     NEAR LAB  LVL=2
      WR12        REGSYM    ---      WORD      i
      R15         REGSYM    ---      BYTE      d
      ---         BLOCKEND  ---      ---       LVL=2
      00FF0F29H   BLOCK     CODE     NEAR LAB  LVL=2
      R15         REGSYM    ---      BYTE      cnt
      ---         BLOCKEND  ---      ---       LVL=2
      00FF0F6DH   BLOCK     CODE     NEAR LAB  LVL=2
L251 LINKER/LOCATER V4.66.93.0                                                        08/29/2024  10:02:11  PAGE 26


      WR12        REGSYM    ---      WORD      i
      R15         REGSYM    ---      BYTE      d
      ---         BLOCKEND  ---      ---       LVL=2
      00FF0FA6H   BLOCK     CODE     NEAR LAB  LVL=2
      R15         REGSYM    ---      BYTE      cnt
      ---         BLOCKEND  ---      ---       LVL=2
      00FF0FEAH   BLOCK     CODE     NEAR LAB  LVL=2
      WR14        REGSYM    ---      WORD      i
      R13         REGSYM    ---      BYTE      d
      ---         BLOCKEND  ---      ---       LVL=2
      ---         BLOCKEND  ---      ---       LVL=1
      00FF0E55H   LINE      CODE     ---       #14
      00FF0E59H   LINE      CODE     ---       #15
      00FF0E59H   LINE      CODE     ---       #17
      00FF0E59H   LINE      CODE     ---       #18
      00FF0E62H   LINE      CODE     ---       #21
      00FF0E62H   LINE      CODE     ---       #22
      00FF0E62H   LINE      CODE     ---       #24
      00FF0E68H   LINE      CODE     ---       #27
      00FF0E7AH   LINE      CODE     ---       #28
      00FF0EA5H   LINE      CODE     ---       #29
      00FF0EA9H   LINE      CODE     ---       #30
      00FF0EEDH   LINE      CODE     ---       #31
      00FF0F20H   LINE      CODE     ---       #32
      00FF0F29H   LINE      CODE     ---       #33
      00FF0F6DH   LINE      CODE     ---       #34
      00FF0FA0H   LINE      CODE     ---       #35
      00FF0FA6H   LINE      CODE     ---       #36
      00FF0FEAH   LINE      CODE     ---       #37
      00FF101DH   LINE      CODE     ---       #38
      00FF1045H   LINE      CODE     ---       #40
      ---         BLOCKEND  ---      ---       LVL=0

      ---         MODULE    ---      ---       ads1110
      000000D0H   SFRSYM    DATA     BYTE      PSW
      0000009DH   SFRSYM    DATA     BYTE      IRCBAND
      00000097H   SFRSYM    DATA     BYTE      AUXR2
      000000EFH   SFRSYM    DATA     BYTE      AUXINTIF
      000000FDH   SFRSYM    DATA     BYTE      S4CON
      000000ACH   SFRSYM    DATA     BYTE      S3CON
      0000009AH   SFRSYM    DATA     BYTE      S2CON
      000000B7H   SFRSYM    DATA     BYTE      IPH
      000000CDH   SFRSYM    DATA     BYTE      SPSTAT
      000000DDH   SFRSYM    DATA     BYTE      T4T3M
      000000C1H   SFRSYM    DATA     BYTE      WDT_CONTR
      000000DFH   SFRSYM    DATA     BYTE      IP3
      000000F4H   SFRSYM    DATA     BYTE      USBCON
      000000B5H   SFRSYM    DATA     BYTE      IP2
      000000FFH   SFRSYM    DATA     BYTE      RSTCFG
      000000C7H   SFRSYM    DATA     BYTE      IAP_CONTR
      000000F9H   SFRSYM    DATA     BYTE      LINICR
      0000008EH   SFRSYM    DATA     BYTE      AUXR
      000000AFH   SFRSYM    DATA     BYTE      IE2
      00000088H   SFRSYM    DATA     BYTE      TCON
      00000089H   SFRSYM    DATA     BYTE      TMOD
      00000098H   SFRSYM    DATA     BYTE      SCON
      000000F1H   SFRSYM    DATA     BYTE      CANICR
      00000087H   SFRSYM    DATA     BYTE      PCON
      000000BCH   SFRSYM    DATA     BYTE      ADC_CONTR
      000000E7H   SFRSYM    DATA     BYTE      CMPCR2
      000000E6H   SFRSYM    DATA     BYTE      CMPCR1
      000000DEH   SFRSYM    DATA     BYTE      ADCCFG
      000000B8H   SFRSYM    DATA     BYTE      IP
      0000008FH   SFRSYM    DATA     BYTE      INTCLKO
      000000EEH   SFRSYM    DATA     BYTE      IP3H
L251 LINKER/LOCATER V4.66.93.0                                                        08/29/2024  10:02:11  PAGE 27


      000000B6H   SFRSYM    DATA     BYTE      IP2H
      000000A8H   SFRSYM    DATA     BYTE      IE
      000000BBH   SFRSYM    DATA     BYTE      P_SW3
      000000BAH   SFRSYM    DATA     BYTE      P_SW2
      000000A2H   SFRSYM    DATA     BYTE      P_SW1
      000000CEH   SFRSYM    DATA     BYTE      SPCTL
      000000F8H   SFRSYM    DATA     BYTE      P7
      000000E8H   SFRSYM    DATA     BYTE      P6
      000000C8H   SFRSYM    DATA     BYTE      P5
      000000C0H   SFRSYM    DATA     BYTE      P4
      000000B0H   SFRSYM    DATA     BYTE      P3
      000000A0H   SFRSYM    DATA     BYTE      P2
      00000090H   SFRSYM    DATA     BYTE      P1
      00000080H   SFRSYM    DATA     BYTE      P0

      ---         MODULE    ---      ---       cmd
      00FF1F1DH   PUBLIC    CODE     ---       Out4_20ma
      00FF11E4H   PUBLIC    CODE     ---       WriteSensorParam
      00FF1FDCH   PUBLIC    CODE     ---       CheckSum
      00FF1C6EH   PUBLIC    CODE     ---       ReadDoseRate
      00FF1E16H   PUBLIC    CODE     ---       SendSensorCmd
      00FF1BCDH   PUBLIC    CODE     ---       WaitSensorAck
      00FF20C7H   PUBLIC    CODE     ---       SoundCtl
      00FF1D76H   PUBLIC    CODE     ---       LedCtl
      00FF1F6CH   PUBLIC    CODE     ---       HndPcFrame
      00FF1C1FH   PUBLIC    CODE     ---       DwordToSmall
      00FF0B87H   PUBLIC    CODE     ---       Read4_20ma
      00FF08AFH   PUBLIC    CODE     ---       ReadBatVol
      00FF1DE5H   PUBLIC    CODE     ---       ConnectSensor
      00FF163AH   PUBLIC    CODE     ---       DevVer
      00FF1ECCH   PUBLIC    CODE     ---       SendPcCmd
      00FF14D6H   PUBLIC    CODE     ---       ValidFrame
      00FF183CH   PUBLIC    CODE     ---       ReadAlarmParam
      00FF1048H   PUBLIC    CODE     ---       HndPcCmd
      00FF1AC9H   PUBLIC    CODE     ---       FrameRevert
      00FF1595H   PUBLIC    CODE     ---       MakeFrame
      00FF12FBH   PUBLIC    CODE     ---       ReadSensorParam
      00FF17C3H   PUBLIC    CODE     ---       WriteAlarmParam
      00FF2048H   PUBLIC    CODE     ---       ClearRecvData
      00FF1B22H   PUBLIC    CODE     ---       ChannelAlmLightClt
      00000010H   PUBLIC    EDATA    BYTE      g_CrcFlag
      00000011H   PUBLIC    EDATA    WORD      g_CommIdleTime
      00000211H   PUBLIC    EDATA    BYTE      ?MakeFrame?BYTE
      000000D0H   SFRSYM    DATA     BYTE      PSW
      0000009DH   SFRSYM    DATA     BYTE      IRCBAND
      00000097H   SFRSYM    DATA     BYTE      AUXR2
      000000EFH   SFRSYM    DATA     BYTE      AUXINTIF
      000000FDH   SFRSYM    DATA     BYTE      S4CON
      000000ACH   SFRSYM    DATA     BYTE      S3CON
      0000009AH   SFRSYM    DATA     BYTE      S2CON
      000000B7H   SFRSYM    DATA     BYTE      IPH
      000000CDH   SFRSYM    DATA     BYTE      SPSTAT
      000000DDH   SFRSYM    DATA     BYTE      T4T3M
      000000C1H   SFRSYM    DATA     BYTE      WDT_CONTR
      000000DFH   SFRSYM    DATA     BYTE      IP3
      000000F4H   SFRSYM    DATA     BYTE      USBCON
      000000B5H   SFRSYM    DATA     BYTE      IP2
      000000FFH   SFRSYM    DATA     BYTE      RSTCFG
      000000C7H   SFRSYM    DATA     BYTE      IAP_CONTR
      000000F9H   SFRSYM    DATA     BYTE      LINICR
      0000008EH   SFRSYM    DATA     BYTE      AUXR
      000000AFH   SFRSYM    DATA     BYTE      IE2
      00000088H   SFRSYM    DATA     BYTE      TCON
      00000089H   SFRSYM    DATA     BYTE      TMOD
      00000098H   SFRSYM    DATA     BYTE      SCON
L251 LINKER/LOCATER V4.66.93.0                                                        08/29/2024  10:02:11  PAGE 28


      000000F1H   SFRSYM    DATA     BYTE      CANICR
      00000087H   SFRSYM    DATA     BYTE      PCON
      000000BCH   SFRSYM    DATA     BYTE      ADC_CONTR
      000000E7H   SFRSYM    DATA     BYTE      CMPCR2
      000000E6H   SFRSYM    DATA     BYTE      CMPCR1
      000000DEH   SFRSYM    DATA     BYTE      ADCCFG
      000000B8H   SFRSYM    DATA     BYTE      IP
      0000008FH   SFRSYM    DATA     BYTE      INTCLKO
      000000EEH   SFRSYM    DATA     BYTE      IP3H
      000000B6H   SFRSYM    DATA     BYTE      IP2H
      000000A8H   SFRSYM    DATA     BYTE      IE
      000000BBH   SFRSYM    DATA     BYTE      P_SW3
      000000BAH   SFRSYM    DATA     BYTE      P_SW2
      000000A2H   SFRSYM    DATA     BYTE      P_SW1
      000000CEH   SFRSYM    DATA     BYTE      SPCTL
      000000F8H   SFRSYM    DATA     BYTE      P7
      000000E8H   SFRSYM    DATA     BYTE      P6
      000000C8H   SFRSYM    DATA     BYTE      P5
      000000C0H   SFRSYM    DATA     BYTE      P4
      000000B0H   SFRSYM    DATA     BYTE      P3
      000000B3H   SFRSYM    DATA     BYTE      P4M1
      000000A0H   SFRSYM    DATA     BYTE      P2
      000000B4H   SFRSYM    DATA     BYTE      P4M0
      00000090H   SFRSYM    DATA     BYTE      P1
      00000080H   SFRSYM    DATA     BYTE      P0
      00FF22A9H   SYMBOL    HCONST   ---       ?tpl?0001
      00FF22ACH   SYMBOL    HCONST   ---       ?tpl?0002
      00FF22AFH   SYMBOL    HCONST   ---       ?tpl?0003
      00FF22B2H   SYMBOL    HCONST   ---       ?tpl?0004
      00FF22B5H   SYMBOL    HCONST   ---       ?tpl?0005
      00FF22BAH   SYMBOL    HCONST   ---       ?tpl?0006
      00FF22BFH   SYMBOL    HCONST   ---       ?tpl?0007

      00FF1C1FH   BLOCK     CODE     ---       LVL=0
      00000217H   SYMBOL    EDATA    DWORD     dat
      00FF1C23H   BLOCK     CODE     NEAR LAB  LVL=1
      0000021BH   SYMBOL    EDATA    ---       buf
      R7          REGSYM    ---      BYTE      t
      0000021FH   SYMBOL    EDATA    DWORD     ret
      ---         BLOCKEND  ---      ---       LVL=1
      00FF1C1FH   LINE      CODE     ---       #25
      00FF1C23H   LINE      CODE     ---       #26
      00FF1C23H   LINE      CODE     ---       #31
      00FF1C36H   LINE      CODE     ---       #32
      00FF1C3AH   LINE      CODE     ---       #33
      00FF1C42H   LINE      CODE     ---       #34
      00FF1C46H   LINE      CODE     ---       #35
      00FF1C4AH   LINE      CODE     ---       #36
      00FF1C52H   LINE      CODE     ---       #37
      00FF1C56H   LINE      CODE     ---       #39
      00FF1C69H   LINE      CODE     ---       #40
      00FF1C6DH   LINE      CODE     ---       #41
      ---         BLOCKEND  ---      ---       LVL=0
      R7          REGSYM    ---      BYTE      t
      R6          REGSYM    ---      BYTE      t
      R10         REGSYM    ---      BYTE      i
      R7          REGSYM    ---      BYTE      j
      R7          REGSYM    ---      BYTE      t

      00FF2048H   BLOCK     CODE     ---       LVL=0
      REG=3       REGSYM    ---      ---       pUartData
      00FF2048H   LINE      CODE     ---       #99
      00FF204CH   LINE      CODE     ---       #101
      00FF2058H   LINE      CODE     ---       #102
      00FF205EH   LINE      CODE     ---       #103
L251 LINKER/LOCATER V4.66.93.0                                                        08/29/2024  10:02:11  PAGE 29


      00FF2067H   LINE      CODE     ---       #104
      ---         BLOCKEND  ---      ---       LVL=0

      00FF14D6H   BLOCK     CODE     ---       LVL=0
      REG=3       REGSYM    ---      ---       pUartData
      00FF14DAH   BLOCK     CODE     NEAR LAB  LVL=1
      R7          REGSYM    ---      BYTE      lcrc
      0000021BH   SYMBOL    EDATA    ---       tmp
      0000021EH   SYMBOL    EDATA    ---       tmp2
      00000221H   SYMBOL    EDATA    ---       FrmHead
      ---         BLOCKEND  ---      ---       LVL=1
      00FF14D6H   LINE      CODE     ---       #106
      00FF14DAH   LINE      CODE     ---       #107
      00FF14DAH   LINE      CODE     ---       #109
      00FF1508H   LINE      CODE     ---       #110
      00FF1508H   LINE      CODE     ---       #112
      00FF151DH   LINE      CODE     ---       #116
      00FF1526H   LINE      CODE     ---       #120
      00FF1529H   LINE      CODE     ---       #121
      00FF1529H   LINE      CODE     ---       #123
      00FF153EH   LINE      CODE     ---       #126
      00FF1541H   LINE      CODE     ---       #127
      00FF1541H   LINE      CODE     ---       #129
      00FF154BH   LINE      CODE     ---       #132
      00FF154EH   LINE      CODE     ---       #133
      00FF154EH   LINE      CODE     ---       #135
      00FF1557H   LINE      CODE     ---       #137
      00FF156CH   LINE      CODE     ---       #139
      00FF158DH   LINE      CODE     ---       #141
      00FF1590H   LINE      CODE     ---       #142
      00FF1590H   LINE      CODE     ---       #144
      00FF1592H   LINE      CODE     ---       #145
      ---         BLOCKEND  ---      ---       LVL=0

      00FF1595H   BLOCK     CODE     ---       LVL=0
      REG=3       REGSYM    ---      ---       pUartData
      R5          REGSYM    ---      BYTE      Addr
      R10         REGSYM    ---      BYTE      Cmd
      00000217H   SYMBOL    EDATA    ---       dat
      0000021BH   SYMBOL    EDATA    BYTE      length
      00FF15A1H   BLOCK     CODE     NEAR LAB  LVL=1
      R7          REGSYM    ---      BYTE      lcrc
      0000021CH   SYMBOL    EDATA    ---       FrmHead
      ---         BLOCKEND  ---      ---       LVL=1
      00FF1595H   LINE      CODE     ---       #148
      00FF15A1H   LINE      CODE     ---       #149
      00FF15A1H   LINE      CODE     ---       #153
      00FF15A7H   LINE      CODE     ---       #154
      00FF15B5H   LINE      CODE     ---       #155
      00FF15BAH   LINE      CODE     ---       #156
      00FF15BEH   LINE      CODE     ---       #157
      00FF15C2H   LINE      CODE     ---       #159
      00FF15D5H   LINE      CODE     ---       #160
      00FF15DEH   LINE      CODE     ---       #162
      00FF15F1H   LINE      CODE     ---       #163
      00FF15F1H   LINE      CODE     ---       #165
      00FF1600H   LINE      CODE     ---       #169
      00FF161DH   LINE      CODE     ---       #172
      00FF162DH   LINE      CODE     ---       #173
      00FF1637H   LINE      CODE     ---       #174
      ---         BLOCKEND  ---      ---       LVL=0

      00FF1ECCH   BLOCK     CODE     ---       LVL=0
      R6          REGSYM    ---      BYTE      Addr
      R7          REGSYM    ---      BYTE      Cmd
L251 LINKER/LOCATER V4.66.93.0                                                        08/29/2024  10:02:11  PAGE 30


      REG=0       REGSYM    ---      ---       dat
      R10         REGSYM    ---      BYTE      length
      00FF1ECCH   LINE      CODE     ---       #177
      00FF1ECEH   LINE      CODE     ---       #180
      00FF1EDDH   LINE      CODE     ---       #183
      00FF1EEEH   LINE      CODE     ---       #185
      00FF1EF4H   LINE      CODE     ---       #186
      ---         BLOCKEND  ---      ---       LVL=0

      00FF1E16H   BLOCK     CODE     ---       LVL=0
      R14         REGSYM    ---      BYTE      Addr
      R15         REGSYM    ---      BYTE      Cmd
      REG=0       REGSYM    ---      ---       Data
      R10         REGSYM    ---      BYTE      length
      00FF1E16H   LINE      CODE     ---       #188
      00FF1E1CH   LINE      CODE     ---       #191
      00FF1E2BH   LINE      CODE     ---       #192
      00FF1E3CH   LINE      CODE     ---       #193
      00FF1E43H   LINE      CODE     ---       #194
      ---         BLOCKEND  ---      ---       LVL=0

      00FF1BCDH   BLOCK     CODE     ---       LVL=0
      R15         REGSYM    ---      BYTE      Cmd
      00FF1BD1H   BLOCK     CODE     NEAR LAB  LVL=1
      00000217H   SYMBOL    EDATA    DWORD     to
      ---         BLOCKEND  ---      ---       LVL=1
      00FF1BCDH   LINE      CODE     ---       #197
      00FF1BD1H   LINE      CODE     ---       #198
      00FF1BD1H   LINE      CODE     ---       #199
      00FF1BD1H   LINE      CODE     ---       #200
      00FF1BD9H   LINE      CODE     ---       #201
      00FF1BDBH   LINE      CODE     ---       #204
      00FF1BEBH   LINE      CODE     ---       #210
      00FF1BF8H   LINE      CODE     ---       #212
      00FF1C00H   LINE      CODE     ---       #214
      00FF1C04H   LINE      CODE     ---       #215
      00FF1C04H   LINE      CODE     ---       #217
      00FF1C04H   LINE      CODE     ---       #219
      00FF1C0BH   LINE      CODE     ---       #222
      00FF1C1BH   LINE      CODE     ---       #226
      00FF1C1CH   LINE      CODE     ---       #227
      ---         BLOCKEND  ---      ---       LVL=0

      00FF1F6CH   BLOCK     CODE     ---       LVL=0
      00FF1F6EH   BLOCK     CODE     NEAR LAB  LVL=1
      R15         REGSYM    ---      BYTE      ret
      ---         BLOCKEND  ---      ---       LVL=1
      00FF1F6CH   LINE      CODE     ---       #231
      00FF1F6EH   LINE      CODE     ---       #232
      00FF1F6EH   LINE      CODE     ---       #233
      00FF1F70H   LINE      CODE     ---       #234
      00FF1F7DH   LINE      CODE     ---       #237
      00FF1F82H   LINE      CODE     ---       #238
      00FF1F82H   LINE      CODE     ---       #239
      00FF1F8DH   LINE      CODE     ---       #240
      00FF1F8FH   LINE      CODE     ---       #241
      ---         BLOCKEND  ---      ---       LVL=0

      00FF1F1DH   BLOCK     CODE     ---       LVL=0
      R5          REGSYM    ---      BYTE      index
      R6          REGSYM    ---      BYTE      val
      00FF1F21H   BLOCK     CODE     NEAR LAB  LVL=1
      WR6         REGSYM    ---      WORD      v
      ---         BLOCKEND  ---      ---       LVL=1
      00FF1F1DH   LINE      CODE     ---       #244
L251 LINKER/LOCATER V4.66.93.0                                                        08/29/2024  10:02:11  PAGE 31


      00FF1F21H   LINE      CODE     ---       #245
      00FF1F21H   LINE      CODE     ---       #246
      00FF1F26H   LINE      CODE     ---       #248
      00FF1F2EH   LINE      CODE     ---       #250
      00FF1F32H   LINE      CODE     ---       #251
      00FF1F37H   LINE      CODE     ---       #254
      00FF1F37H   LINE      CODE     ---       #256
      00FF1F42H   LINE      CODE     ---       #257
      00FF1F44H   LINE      CODE     ---       #258
      ---         BLOCKEND  ---      ---       LVL=0

      00FF0B87H   BLOCK     CODE     ---       LVL=0
      00FF0B89H   BLOCK     CODE     NEAR LAB  LVL=1
      000001C6H   SYMBOL    EDATA    BYTE      ret
      WR6         REGSYM    ---      INT       Voltage
      00FF0B8EH   BLOCK     CODE     NEAR LAB  LVL=2
      R15         REGSYM    ---      BYTE      rd_data
      000001C7H   SYMBOL    EDATA    CHAR      ack
      000001C8H   SYMBOL    EDATA    ---       OutBuf
      00FF0BD4H   BLOCK     CODE     NEAR LAB  LVL=3
      R14         REGSYM    ---      BYTE      cnt
      ---         BLOCKEND  ---      ---       LVL=3
      00FF0C18H   BLOCK     CODE     NEAR LAB  LVL=3
      WR12        REGSYM    ---      WORD      i
      R14         REGSYM    ---      BYTE      d
      ---         BLOCKEND  ---      ---       LVL=3
      00FF0C52H   BLOCK     CODE     NEAR LAB  LVL=3
      R14         REGSYM    ---      BYTE      cnt
      R13         REGSYM    ---      BYTE      io_data
      ---         BLOCKEND  ---      ---       LVL=3
      00FF0CDEH   BLOCK     CODE     NEAR LAB  LVL=3
      R14         REGSYM    ---      BYTE      cnt
      R13         REGSYM    ---      BYTE      io_data
      ---         BLOCKEND  ---      ---       LVL=3
      00FF0D6BH   BLOCK     CODE     NEAR LAB  LVL=3
      R14         REGSYM    ---      BYTE      cnt
      R13         REGSYM    ---      BYTE      io_data
      ---         BLOCKEND  ---      ---       LVL=3
      ---         BLOCKEND  ---      ---       LVL=2
      ---         BLOCKEND  ---      ---       LVL=1
      00FF0B87H   LINE      CODE     ---       #261
      00FF0B89H   LINE      CODE     ---       #262
      00FF0B89H   LINE      CODE     ---       #263
      00FF0B8EH   LINE      CODE     ---       #264
      00FF0B8EH   LINE      CODE     ---       #265
      00FF0E37H   LINE      CODE     ---       #267
      00FF0E42H   LINE      CODE     ---       #268
      00FF0E50H   LINE      CODE     ---       #269
      00FF0E52H   LINE      CODE     ---       #270
      ---         BLOCKEND  ---      ---       LVL=0

      00FF08AFH   BLOCK     CODE     ---       LVL=0
      00FF08B1H   BLOCK     CODE     NEAR LAB  LVL=1
      000001C6H   SYMBOL    EDATA    ---       bi
      WR6         REGSYM    ---      INT       Voltage
      R15         REGSYM    ---      BYTE      rd_data
      000001C9H   SYMBOL    EDATA    CHAR      ack
      000001CAH   SYMBOL    EDATA    ---       OutBuf
      00FF08F8H   BLOCK     CODE     NEAR LAB  LVL=2
      R14         REGSYM    ---      BYTE      cnt
      ---         BLOCKEND  ---      ---       LVL=2
      00FF093CH   BLOCK     CODE     NEAR LAB  LVL=2
      WR12        REGSYM    ---      WORD      i
      R14         REGSYM    ---      BYTE      d
      ---         BLOCKEND  ---      ---       LVL=2
L251 LINKER/LOCATER V4.66.93.0                                                        08/29/2024  10:02:11  PAGE 32


      00FF0976H   BLOCK     CODE     NEAR LAB  LVL=2
      R14         REGSYM    ---      BYTE      cnt
      R13         REGSYM    ---      BYTE      io_data
      ---         BLOCKEND  ---      ---       LVL=2
      00FF0A02H   BLOCK     CODE     NEAR LAB  LVL=2
      R14         REGSYM    ---      BYTE      cnt
      R13         REGSYM    ---      BYTE      io_data
      ---         BLOCKEND  ---      ---       LVL=2
      00FF0A8FH   BLOCK     CODE     NEAR LAB  LVL=2
      R14         REGSYM    ---      BYTE      cnt
      R13         REGSYM    ---      BYTE      io_data
      ---         BLOCKEND  ---      ---       LVL=2
      ---         BLOCKEND  ---      ---       LVL=1
      00FF08AFH   LINE      CODE     ---       #273
      00FF08B1H   LINE      CODE     ---       #274
      00FF08B1H   LINE      CODE     ---       #276
      00FF08B1H   LINE      CODE     ---       #277
      00FF0B5BH   LINE      CODE     ---       #279
      00FF0B5FH   LINE      CODE     ---       #280
      00FF0B74H   LINE      CODE     ---       #281
      00FF0B82H   LINE      CODE     ---       #282
      00FF0B84H   LINE      CODE     ---       #283
      ---         BLOCKEND  ---      ---       LVL=0

      00FF1048H   BLOCK     CODE     ---       LVL=0
      R11         REGSYM    ---      BYTE      ret
      000001C1H   SYMBOL    EDATA    ---       FrmHead
      00FF1048H   LINE      CODE     ---       #286
      00FF1048H   LINE      CODE     ---       #287
      00FF1048H   LINE      CODE     ---       #288
      00FF1048H   LINE      CODE     ---       #290
      00FF105FH   LINE      CODE     ---       #291
      00FF117CH   LINE      CODE     ---       #294
      00FF1183H   LINE      CODE     ---       #295
      00FF118EH   LINE      CODE     ---       #296
      00FF119BH   LINE      CODE     ---       #297
      00FF119EH   LINE      CODE     ---       #298
      00FF11A5H   LINE      CODE     ---       #299
      00FF11A8H   LINE      CODE     ---       #300
      00FF11B3H   LINE      CODE     ---       #303
      00FF11BAH   LINE      CODE     ---       #304
      00FF11C1H   LINE      CODE     ---       #305
      00FF11C8H   LINE      CODE     ---       #306
      00FF11CFH   LINE      CODE     ---       #307
      00FF11D6H   LINE      CODE     ---       #308
      00FF11DDH   LINE      CODE     ---       #310
      00FF11E4H   LINE      CODE     ---       #311
      00FF11E4H   LINE      CODE     ---       #313
      00FF11E4H   LINE      CODE     ---       #314
      ---         BLOCKEND  ---      ---       LVL=0

      00FF1AC9H   BLOCK     CODE     ---       LVL=0
      REG=3       REGSYM    ---      ---       fres
      00FF1ACDH   BLOCK     CODE     NEAR LAB  LVL=1
      000001C6H   SYMBOL    EDATA    BYTE      ret
      ---         BLOCKEND  ---      ---       LVL=1
      00FF1AC9H   LINE      CODE     ---       #316
      00FF1ACDH   LINE      CODE     ---       #317
      00FF1ACDH   LINE      CODE     ---       #318
      00FF1AD2H   LINE      CODE     ---       #319
      00FF1AEEH   LINE      CODE     ---       #321
      00FF1AF4H   LINE      CODE     ---       #322
      00FF1B10H   LINE      CODE     ---       #324
      00FF1B10H   LINE      CODE     ---       #325
      00FF1B1BH   LINE      CODE     ---       #326
L251 LINKER/LOCATER V4.66.93.0                                                        08/29/2024  10:02:11  PAGE 33


      00FF1B1FH   LINE      CODE     ---       #327
      ---         BLOCKEND  ---      ---       LVL=0

      00FF1DE5H   BLOCK     CODE     ---       LVL=0
      R15         REGSYM    ---      BYTE      Addr
      00FF1DE9H   BLOCK     CODE     NEAR LAB  LVL=1
      R14         REGSYM    ---      BYTE      ret
      ---         BLOCKEND  ---      ---       LVL=1
      00FF1DE5H   LINE      CODE     ---       #329
      00FF1DE9H   LINE      CODE     ---       #330
      00FF1DE9H   LINE      CODE     ---       #331
      00FF1DEBH   LINE      CODE     ---       #332
      00FF1DF7H   LINE      CODE     ---       #334
      00FF1DFAH   LINE      CODE     ---       #335
      00FF1E06H   LINE      CODE     ---       #336
      00FF1E06H   LINE      CODE     ---       #337
      00FF1E11H   LINE      CODE     ---       #339
      00FF1E13H   LINE      CODE     ---       #340
      ---         BLOCKEND  ---      ---       LVL=0

      00FF1C6EH   BLOCK     CODE     ---       LVL=0
      R15         REGSYM    ---      BYTE      Addr
      00FF1C72H   BLOCK     CODE     NEAR LAB  LVL=1
      R14         REGSYM    ---      BYTE      ret
      000001C6H   SYMBOL    EDATA    ---       HostDose
      ---         BLOCKEND  ---      ---       LVL=1
      00FF1C6EH   LINE      CODE     ---       #342
      00FF1C72H   LINE      CODE     ---       #343
      00FF1C72H   LINE      CODE     ---       #344
      00FF1C74H   LINE      CODE     ---       #349
      00FF1C80H   LINE      CODE     ---       #357
      00FF1C97H   LINE      CODE     ---       #359
      00FF1C9AH   LINE      CODE     ---       #360
      00FF1CA9H   LINE      CODE     ---       #361
      00FF1CA9H   LINE      CODE     ---       #362
      00FF1CB4H   LINE      CODE     ---       #363
      00FF1CB6H   LINE      CODE     ---       #364
      ---         BLOCKEND  ---      ---       LVL=0

      00FF183CH   BLOCK     CODE     ---       LVL=0
      R15         REGSYM    ---      BYTE      Addr
      00FF1840H   BLOCK     CODE     NEAR LAB  LVL=1
      R14         REGSYM    ---      BYTE      ret
      000001C6H   SYMBOL    EDATA    ---       HostAlarm
      000001DEH   SYMBOL    EDATA    ---       SensorAlarm
      ---         BLOCKEND  ---      ---       LVL=1
      00FF183CH   LINE      CODE     ---       #366
      00FF1840H   LINE      CODE     ---       #367
      00FF1840H   LINE      CODE     ---       #368
      00FF1842H   LINE      CODE     ---       #373
      00FF184EH   LINE      CODE     ---       #375
      00FF185AH   LINE      CODE     ---       #376
      00FF1871H   LINE      CODE     ---       #377
      00FF1879H   LINE      CODE     ---       #378
      00FF1881H   LINE      CODE     ---       #379
      00FF1889H   LINE      CODE     ---       #380
      00FF1891H   LINE      CODE     ---       #382
      00FF1894H   LINE      CODE     ---       #383
      00FF18A3H   LINE      CODE     ---       #384
      00FF18A3H   LINE      CODE     ---       #386
      00FF18AEH   LINE      CODE     ---       #387
      00FF18B0H   LINE      CODE     ---       #388
      ---         BLOCKEND  ---      ---       LVL=0

      00FF17C3H   BLOCK     CODE     ---       LVL=0
L251 LINKER/LOCATER V4.66.93.0                                                        08/29/2024  10:02:11  PAGE 34


      R15         REGSYM    ---      BYTE      Addr
      00FF17C7H   BLOCK     CODE     NEAR LAB  LVL=1
      R14         REGSYM    ---      BYTE      ret
      000001C6H   SYMBOL    EDATA    ---       HostAlarm
      000001DEH   SYMBOL    EDATA    ---       SensorAlarm
      ---         BLOCKEND  ---      ---       LVL=1
      00FF17C3H   LINE      CODE     ---       #391
      00FF17C7H   LINE      CODE     ---       #392
      00FF17C7H   LINE      CODE     ---       #393
      00FF17C9H   LINE      CODE     ---       #398
      00FF17D5H   LINE      CODE     ---       #399
      00FF17ECH   LINE      CODE     ---       #401
      00FF17F4H   LINE      CODE     ---       #402
      00FF17FCH   LINE      CODE     ---       #403
      00FF1804H   LINE      CODE     ---       #404
      00FF180CH   LINE      CODE     ---       #406
      00FF181DH   LINE      CODE     ---       #408
      00FF1829H   LINE      CODE     ---       #409
      00FF182CH   LINE      CODE     ---       #410
      00FF182CH   LINE      CODE     ---       #411
      00FF1837H   LINE      CODE     ---       #413
      00FF1839H   LINE      CODE     ---       #414
      ---         BLOCKEND  ---      ---       LVL=0

      00FF12FBH   BLOCK     CODE     ---       LVL=0
      R15         REGSYM    ---      BYTE      Addr
      00FF12FFH   BLOCK     CODE     NEAR LAB  LVL=1
      R14         REGSYM    ---      BYTE      ret
      000001C6H   SYMBOL    EDATA    ---       HostParam
      000001FEH   SYMBOL    EDATA    ---       SensorParam
      00000212H   SYMBOL    EDATA    ---       temp
      ---         BLOCKEND  ---      ---       LVL=1
      00FF12FBH   LINE      CODE     ---       #417
      00FF12FFH   LINE      CODE     ---       #418
      00FF12FFH   LINE      CODE     ---       #419
      00FF1301H   LINE      CODE     ---       #423
      00FF131CH   LINE      CODE     ---       #425
      00FF132DH   LINE      CODE     ---       #427
      00FF1339H   LINE      CODE     ---       #428
      00FF1350H   LINE      CODE     ---       #430
      00FF1358H   LINE      CODE     ---       #432
      00FF1360H   LINE      CODE     ---       #434
      00FF1373H   LINE      CODE     ---       #435
      00FF1382H   LINE      CODE     ---       #436
      00FF1389H   LINE      CODE     ---       #437
      00FF139CH   LINE      CODE     ---       #438
      00FF13ABH   LINE      CODE     ---       #439
      00FF13B2H   LINE      CODE     ---       #440
      00FF13C5H   LINE      CODE     ---       #441
      00FF13D4H   LINE      CODE     ---       #442
      00FF13DBH   LINE      CODE     ---       #446
      00FF13EAH   LINE      CODE     ---       #447
      00FF13EDH   LINE      CODE     ---       #449
      00FF13EDH   LINE      CODE     ---       #450
      00FF13F8H   LINE      CODE     ---       #451
      00FF13FAH   LINE      CODE     ---       #452
      ---         BLOCKEND  ---      ---       LVL=0

      00FF11E4H   BLOCK     CODE     ---       LVL=0
      R15         REGSYM    ---      BYTE      Addr
      00FF11E8H   BLOCK     CODE     NEAR LAB  LVL=1
      R14         REGSYM    ---      BYTE      ret
      000001C6H   SYMBOL    EDATA    ---       HostParam
      000001FEH   SYMBOL    EDATA    ---       SensorParam
      00000212H   SYMBOL    EDATA    ---       temp
L251 LINKER/LOCATER V4.66.93.0                                                        08/29/2024  10:02:11  PAGE 35


      ---         BLOCKEND  ---      ---       LVL=1
      00FF11E4H   LINE      CODE     ---       #456
      00FF11E8H   LINE      CODE     ---       #457
      00FF11E8H   LINE      CODE     ---       #458
      00FF11EAH   LINE      CODE     ---       #462
      00FF1205H   LINE      CODE     ---       #464
      00FF1211H   LINE      CODE     ---       #465
      00FF1228H   LINE      CODE     ---       #467
      00FF1230H   LINE      CODE     ---       #468
      00FF1238H   LINE      CODE     ---       #469
      00FF1243H   LINE      CODE     ---       #470
      00FF1256H   LINE      CODE     ---       #471
      00FF1269H   LINE      CODE     ---       #473
      00FF1274H   LINE      CODE     ---       #474
      00FF1287H   LINE      CODE     ---       #475
      00FF129AH   LINE      CODE     ---       #477
      00FF12A5H   LINE      CODE     ---       #478
      00FF12B8H   LINE      CODE     ---       #479
      00FF12CBH   LINE      CODE     ---       #481
      00FF12DCH   LINE      CODE     ---       #484
      00FF12E8H   LINE      CODE     ---       #485
      00FF12EBH   LINE      CODE     ---       #487
      00FF12EBH   LINE      CODE     ---       #488
      00FF12F6H   LINE      CODE     ---       #489
      00FF12F8H   LINE      CODE     ---       #490
      ---         BLOCKEND  ---      ---       LVL=0

      00FF20C7H   BLOCK     CODE     ---       LVL=0
      R7          REGSYM    ---      BYTE      Ctl
      00FF20C7H   LINE      CODE     ---       #492
      00FF20C9H   LINE      CODE     ---       #494
      00FF20CDH   LINE      CODE     ---       #497
      00FF20CFH   LINE      CODE     ---       #498
      00FF20D1H   LINE      CODE     ---       #502
      00FF20D6H   LINE      CODE     ---       #503
      00FF20D6H   LINE      CODE     ---       #504
      00FF20E1H   LINE      CODE     ---       #505
      00FF20E3H   LINE      CODE     ---       #506
      ---         BLOCKEND  ---      ---       LVL=0

      00FF1D76H   BLOCK     CODE     ---       LVL=0
      REG=0       REGSYM    ---      ---       led
      00FF1D76H   LINE      CODE     ---       #508
      00FF1D76H   LINE      CODE     ---       #510
      00FF1D87H   LINE      CODE     ---       #513
      00FF1D8DH   LINE      CODE     ---       #515
      00FF1D90H   LINE      CODE     ---       #516
      00FF1D92H   LINE      CODE     ---       #519
      00FF1D95H   LINE      CODE     ---       #521
      00FF1D95H   LINE      CODE     ---       #523
      00FF1D9BH   LINE      CODE     ---       #525
      00FF1D9EH   LINE      CODE     ---       #526
      00FF1DA0H   LINE      CODE     ---       #529
      00FF1DA3H   LINE      CODE     ---       #530
      00FF1DA3H   LINE      CODE     ---       #532
      00FF1DAEH   LINE      CODE     ---       #533
      00FF1DB0H   LINE      CODE     ---       #534
      ---         BLOCKEND  ---      ---       LVL=0

      00FF1B22H   BLOCK     CODE     ---       LVL=0
      REG=0       REGSYM    ---      ---       Light
      00FF1B22H   LINE      CODE     ---       #536
      00FF1B22H   LINE      CODE     ---       #538
      00FF1B33H   LINE      CODE     ---       #539
      00FF1B39H   LINE      CODE     ---       #541
L251 LINKER/LOCATER V4.66.93.0                                                        08/29/2024  10:02:11  PAGE 36


      00FF1B3CH   LINE      CODE     ---       #543
      00FF1B3EH   LINE      CODE     ---       #546
      00FF1B41H   LINE      CODE     ---       #548
      00FF1B41H   LINE      CODE     ---       #550
      00FF1B47H   LINE      CODE     ---       #552
      00FF1B4AH   LINE      CODE     ---       #554
      00FF1B4CH   LINE      CODE     ---       #557
      00FF1B4FH   LINE      CODE     ---       #559
      00FF1B4FH   LINE      CODE     ---       #561
      00FF1B55H   LINE      CODE     ---       #563
      00FF1B58H   LINE      CODE     ---       #565
      00FF1B5AH   LINE      CODE     ---       #568
      00FF1B5DH   LINE      CODE     ---       #570
      00FF1B5DH   LINE      CODE     ---       #571
      00FF1B63H   LINE      CODE     ---       #573
      00FF1B66H   LINE      CODE     ---       #575
      00FF1B68H   LINE      CODE     ---       #578
      00FF1B6BH   LINE      CODE     ---       #580
      00FF1B6BH   LINE      CODE     ---       #582
      00FF1B76H   LINE      CODE     ---       #583
      00FF1B78H   LINE      CODE     ---       #586
      ---         BLOCKEND  ---      ---       LVL=0

      00FF163AH   BLOCK     CODE     ---       LVL=0
      R15         REGSYM    ---      BYTE      Addr
      00FF163EH   BLOCK     CODE     NEAR LAB  LVL=1
      000001C6H   SYMBOL    EDATA    ---       buf
      ---         BLOCKEND  ---      ---       LVL=1
      00FF163AH   LINE      CODE     ---       #599
      00FF163EH   LINE      CODE     ---       #600
      00FF163EH   LINE      CODE     ---       #601
      00FF1661H   LINE      CODE     ---       #603
      00FF1665H   LINE      CODE     ---       #605
      00FF167CH   LINE      CODE     ---       #606
      00FF167EH   LINE      CODE     ---       #609
      00FF168CH   LINE      CODE     ---       #612
      00FF16A3H   LINE      CODE     ---       #613
      00FF16AEH   LINE      CODE     ---       #614
      00FF16B0H   LINE      CODE     ---       #617
      00FF16B3H   LINE      CODE     ---       #618
      00FF16B3H   LINE      CODE     ---       #619
      00FF16B3H   LINE      CODE     ---       #621
      00FF16C2H   LINE      CODE     ---       #622
      00FF16C4H   LINE      CODE     ---       #623
      ---         BLOCKEND  ---      ---       LVL=0

      00FF1FDCH   BLOCK     CODE     ---       LVL=0
      REG=7       REGSYM    ---      ---       dataBuf
      WR8         REGSYM    ---      WORD      len
      00FF1FE0H   BLOCK     CODE     NEAR LAB  LVL=1
      R11         REGSYM    ---      BYTE      i
      R10         REGSYM    ---      BYTE      lchecksum
      ---         BLOCKEND  ---      ---       LVL=1
      00FF1FDCH   LINE      CODE     ---       #636
      00FF1FE0H   LINE      CODE     ---       #637
      00FF1FE0H   LINE      CODE     ---       #638
      00FF1FE0H   LINE      CODE     ---       #639
      00FF1FE0H   LINE      CODE     ---       #640
      00FF1FE2H   LINE      CODE     ---       #641
      00FF1FE6H   LINE      CODE     ---       #643
      00FF1FF1H   LINE      CODE     ---       #644
      00FF1FFEH   LINE      CODE     ---       #645
      00FF2000H   LINE      CODE     ---       #646
      ---         BLOCKEND  ---      ---       LVL=0

L251 LINKER/LOCATER V4.66.93.0                                                        08/29/2024  10:02:11  PAGE 37


      ---         MODULE    ---      ---       MwPro
      000000D0H   SFRSYM    DATA     BYTE      PSW
      0000009DH   SFRSYM    DATA     BYTE      IRCBAND
      00000097H   SFRSYM    DATA     BYTE      AUXR2
      000000EFH   SFRSYM    DATA     BYTE      AUXINTIF
      000000FDH   SFRSYM    DATA     BYTE      S4CON
      000000ACH   SFRSYM    DATA     BYTE      S3CON
      0000009AH   SFRSYM    DATA     BYTE      S2CON
      000000B7H   SFRSYM    DATA     BYTE      IPH
      000000CDH   SFRSYM    DATA     BYTE      SPSTAT
      000000DDH   SFRSYM    DATA     BYTE      T4T3M
      000000C1H   SFRSYM    DATA     BYTE      WDT_CONTR
      000000DFH   SFRSYM    DATA     BYTE      IP3
      000000F4H   SFRSYM    DATA     BYTE      USBCON
      000000B5H   SFRSYM    DATA     BYTE      IP2
      000000FFH   SFRSYM    DATA     BYTE      RSTCFG
      000000C7H   SFRSYM    DATA     BYTE      IAP_CONTR
      000000F9H   SFRSYM    DATA     BYTE      LINICR
      0000008EH   SFRSYM    DATA     BYTE      AUXR
      000000AFH   SFRSYM    DATA     BYTE      IE2
      00000088H   SFRSYM    DATA     BYTE      TCON
      00000089H   SFRSYM    DATA     BYTE      TMOD
      00000098H   SFRSYM    DATA     BYTE      SCON
      000000F1H   SFRSYM    DATA     BYTE      CANICR
      00000087H   SFRSYM    DATA     BYTE      PCON
      000000BCH   SFRSYM    DATA     BYTE      ADC_CONTR
      000000E7H   SFRSYM    DATA     BYTE      CMPCR2
      000000E6H   SFRSYM    DATA     BYTE      CMPCR1
      000000DEH   SFRSYM    DATA     BYTE      ADCCFG
      000000B8H   SFRSYM    DATA     BYTE      IP
      0000008FH   SFRSYM    DATA     BYTE      INTCLKO
      000000EEH   SFRSYM    DATA     BYTE      IP3H
      000000B6H   SFRSYM    DATA     BYTE      IP2H
      000000A8H   SFRSYM    DATA     BYTE      IE
      000000BBH   SFRSYM    DATA     BYTE      P_SW3
      000000BAH   SFRSYM    DATA     BYTE      P_SW2
      000000A2H   SFRSYM    DATA     BYTE      P_SW1
      000000CEH   SFRSYM    DATA     BYTE      SPCTL
      000000F8H   SFRSYM    DATA     BYTE      P7
      000000E8H   SFRSYM    DATA     BYTE      P6
      000000C8H   SFRSYM    DATA     BYTE      P5
      000000C0H   SFRSYM    DATA     BYTE      P4
      000000B0H   SFRSYM    DATA     BYTE      P3
      000000A0H   SFRSYM    DATA     BYTE      P2
      00000090H   SFRSYM    DATA     BYTE      P1
      00000080H   SFRSYM    DATA     BYTE      P0
      REG=7       REGSYM    ---      ---       buf
      R10         REGSYM    ---      BYTE      len
      R7          REGSYM    ---      BYTE      dwSum
      R6          REGSYM    ---      BYTE      i
      R11         REGSYM    ---      BYTE      Bh
      R10         REGSYM    ---      BYTE      Bl
      R5          REGSYM    ---      BYTE      temp

      ---         MODULE    ---      ---       ?C?FPDIV
      00FF0046H   PUBLIC    CODE     ---       ?C?FPDIV

      ---         MODULE    ---      ---       ?C?FCAST
      00FF00D1H   PUBLIC    CODE     NEAR LAB  ?C?FCASTC
      00FF00CCH   PUBLIC    CODE     NEAR LAB  ?C?FCASTI
      00FF00C7H   PUBLIC    CODE     NEAR LAB  ?C?FCASTL

      ---         MODULE    ---      ---       ?C?CASTF
      00FF0104H   PUBLIC    CODE     NEAR LAB  ?C?CASTF

L251 LINKER/LOCATER V4.66.93.0                                                        08/29/2024  10:02:11  PAGE 38


      ---         MODULE    ---      ---       PRINTF
      00FF0141H   PUBLIC    CODE     NEAR LAB  PRINTF

      ---         MODULE    ---      ---       SPRINTF
      0000024EH   PUBLIC    EDATA    ---       ?SPRINTF?BYTE
      00FF016DH   PUBLIC    CODE     NEAR LAB  SPRINTF

      ---         MODULE    ---      ---       ?C?FPGETOPN
      00FF018DH   PUBLIC    CODE     ---       ?C?FPGETOPN2
      00FF01CAH   PUBLIC    CODE     ---       ?C?FPNANRESULT
      00FF01D2H   PUBLIC    CODE     ---       ?C?FPOVERFLOW
      00FF01A6H   PUBLIC    CODE     ---       ?C?FPRESULT
      00FF01BCH   PUBLIC    CODE     ---       ?C?FPRESULT2
      00FF01CFH   PUBLIC    CODE     ---       ?C?FPUNDERFLOW

      ---         MODULE    ---      ---       ?C?PRNFMT
      00FF020BH   PUBLIC    CODE     ---       ?C?PRNFMT

      ---         MODULE    ---      ---       ?C?FPCONVERT
      00FF0628H   PUBLIC    CODE     ---       ?C?FPCONVERT
      00FF06E0H   PUBLIC    CODE     ---       ?C?FPROUND

      ---         MODULE    ---      ---       ?C?FPMUL
      00FF0723H   PUBLIC    CODE     ---       ?C?FPMUL

      ---         MODULE    ---      ---       ?C?FTNPWR
      00FF07F3H   PUBLIC    CODE     ---       ?C?FTNPWR

      ---         MODULE    ---      ---       ?C_START
      00FF0000H   PUBLIC    CODE     ---       ?C?STARTUP
      00FF0000H   PUBLIC    CODE     ---       ?C_STARTUP

      ---         MODULE    ---      ---       ?C?INITEDATA
      00FF1938H   PUBLIC    CODE     ---       ?C?INITEDATA

      ---         MODULE    ---      ---       ?C?INITHDATA
      00FF1961H   PUBLIC    CODE     ---       ?C?INITHDATA

      ---         MODULE    ---      ---       ?C?SIDIV
      00FF082AH   PUBLIC    CODE     ---       ?C?SIDIV

      ---         MODULE    ---      ---       ?C?ULDIV
      00FF085EH   PUBLIC    CODE     NEAR LAB  ?C?ULDIV
      00FF085CH   PUBLIC    CODE     NEAR LAB  ?C?ULIDIV

      ---         MODULE    ---      ---       ATOI
      00FF16C7H   PUBLIC    CODE     ---       atoi?_

      ---         MODULE    ---      ---       STRLEN

      ---         MODULE    ---      ---       memcmp
      00FF1E46H   PUBLIC    CODE     ---       memcmp?_

      ---         MODULE    ---      ---       memcpy
      00FF2001H   PUBLIC    CODE     ---       memcpy?_

      ---         MODULE    ---      ---       memset
      00FF20FEH   PUBLIC    CODE     ---       memset?_

      ---         MODULE    ---      ---       ?C?INITEDATA_END
      00FF2256H   PUBLIC    HCONST   WORD      ?C?INITEDATA_END

      ---         MODULE    ---      ---       ?C?INITHDATA_END
      00FF229DH   PUBLIC    HCONST   WORD      ?C?INITHDATA_END

L251 LINKER/LOCATER V4.66.93.0                                                        08/29/2024  10:02:11  PAGE 39


      ---         MODULE    ---      ---       ISDIGIT
      00FF2190H   PUBLIC    CODE     ---       isdigit?_

      ---         MODULE    ---      ---       ISSPACE
      00FF2143H   PUBLIC    CODE     ---       isspace?_



*** WARNING L57: UNCALLED FUNCTION, IGNORED FOR OVERLAY PROCESS
    NAME:    putchar/uart

*** WARNING L16: UNCALLED SEGMENT, IGNORED FOR OVERLAY PROCESS
    NAME:    PRINTF/PRINTF

*** WARNING L16: UNCALLED SEGMENT, IGNORED FOR OVERLAY PROCESS
    NAME:    PUTCH/PRINTF

Program Size: data=8.4 edata+hdata=876 xdata=1280 const=320 code=8607
L251 RUN COMPLETE.  3 WARNING(S),  0 ERROR(S)
